
RTC.elf:     file format elf32-avr

Sections:
Idx Name          Size      VMA       LMA       File off  Algn
  0 .text         00003bba  00000000  00000000  00000094  2**1
                  CONTENTS, ALLOC, LOAD, READONLY, CODE
  1 .data         0000009e  00800060  00003bba  00003c4e  2**0
                  CONTENTS, ALLOC, LOAD, DATA
  2 .bss          0000000b  008000fe  008000fe  00003cec  2**0
                  ALLOC
  3 .stab         00003864  00000000  00000000  00003cec  2**2
                  CONTENTS, READONLY, DEBUGGING
  4 .stabstr      0000133d  00000000  00000000  00007550  2**0
                  CONTENTS, READONLY, DEBUGGING
  5 .comment      00000012  00000000  00000000  0000888d  2**0
                  CONTENTS, READONLY
  6 .note.gnu.avr.deviceinfo 0000003c  00000000  00000000  000088a0  2**2
                  CONTENTS, READONLY, OCTETS
  7 .debug_aranges 000000e0  00000000  00000000  000088e0  2**3
                  CONTENTS, READONLY, DEBUGGING, OCTETS
  8 .debug_info   000005e2  00000000  00000000  000089c0  2**0
                  CONTENTS, READONLY, DEBUGGING, OCTETS
  9 .debug_abbrev 0000052f  00000000  00000000  00008fa2  2**0
                  CONTENTS, READONLY, DEBUGGING, OCTETS
 10 .debug_line   00000446  00000000  00000000  000094d1  2**0
                  CONTENTS, READONLY, DEBUGGING, OCTETS
 11 .debug_str    000001f8  00000000  00000000  00009917  2**0
                  CONTENTS, READONLY, DEBUGGING, OCTETS
 12 .debug_line_str 00000053  00000000  00000000  00009b0f  2**0
                  CONTENTS, READONLY, DEBUGGING, OCTETS

Disassembly of section .text:

00000000 <__vectors>:
       0:	0c 94 2a 00 	jmp	0x54	; 0x54 <__ctors_end>
       4:	0c 94 47 00 	jmp	0x8e	; 0x8e <__bad_interrupt>
       8:	0c 94 47 00 	jmp	0x8e	; 0x8e <__bad_interrupt>
       c:	0c 94 47 00 	jmp	0x8e	; 0x8e <__bad_interrupt>
      10:	0c 94 42 19 	jmp	0x3284	; 0x3284 <__vector_4>
      14:	0c 94 0d 19 	jmp	0x321a	; 0x321a <__vector_5>
      18:	0c 94 47 00 	jmp	0x8e	; 0x8e <__bad_interrupt>
      1c:	0c 94 47 00 	jmp	0x8e	; 0x8e <__bad_interrupt>
      20:	0c 94 47 00 	jmp	0x8e	; 0x8e <__bad_interrupt>
      24:	0c 94 47 00 	jmp	0x8e	; 0x8e <__bad_interrupt>
      28:	0c 94 ac 17 	jmp	0x2f58	; 0x2f58 <__vector_10>
      2c:	0c 94 77 17 	jmp	0x2eee	; 0x2eee <__vector_11>
      30:	0c 94 47 00 	jmp	0x8e	; 0x8e <__bad_interrupt>
      34:	0c 94 47 00 	jmp	0x8e	; 0x8e <__bad_interrupt>
      38:	0c 94 47 00 	jmp	0x8e	; 0x8e <__bad_interrupt>
      3c:	0c 94 47 00 	jmp	0x8e	; 0x8e <__bad_interrupt>
      40:	0c 94 47 00 	jmp	0x8e	; 0x8e <__bad_interrupt>
      44:	0c 94 47 00 	jmp	0x8e	; 0x8e <__bad_interrupt>
      48:	0c 94 47 00 	jmp	0x8e	; 0x8e <__bad_interrupt>
      4c:	0c 94 47 00 	jmp	0x8e	; 0x8e <__bad_interrupt>
      50:	0c 94 47 00 	jmp	0x8e	; 0x8e <__bad_interrupt>

00000054 <__ctors_end>:
      54:	11 24       	eor	r1, r1
      56:	1f be       	out	0x3f, r1	; 63
      58:	cf e5       	ldi	r28, 0x5F	; 95
      5a:	d8 e0       	ldi	r29, 0x08	; 8
      5c:	de bf       	out	0x3e, r29	; 62
      5e:	cd bf       	out	0x3d, r28	; 61

00000060 <__do_copy_data>:
      60:	10 e0       	ldi	r17, 0x00	; 0

00000062 <.Loc.1>:
      62:	a0 e6       	ldi	r26, 0x60	; 96

00000064 <.Loc.2>:
      64:	b0 e0       	ldi	r27, 0x00	; 0

00000066 <.Loc.3>:
      66:	ea eb       	ldi	r30, 0xBA	; 186

00000068 <.Loc.4>:
      68:	fb e3       	ldi	r31, 0x3B	; 59

0000006a <.Loc.5>:
      6a:	02 c0       	rjmp	.+4      	; 0x70 <.L__do_copy_data_start>

0000006c <.L__do_copy_data_loop>:
      6c:	05 90       	lpm	r0, Z+

0000006e <.Loc.7>:
      6e:	0d 92       	st	X+, r0

00000070 <.L__do_copy_data_start>:
      70:	ae 3f       	cpi	r26, 0xFE	; 254

00000072 <.Loc.9>:
      72:	b1 07       	cpc	r27, r17

00000074 <.Loc.10>:
      74:	d9 f7       	brne	.-10     	; 0x6c <.L__do_copy_data_loop>

00000076 <__do_clear_bss>:
      76:	21 e0       	ldi	r18, 0x01	; 1

00000078 <.Loc.1>:
      78:	ae ef       	ldi	r26, 0xFE	; 254

0000007a <.Loc.2>:
      7a:	b0 e0       	ldi	r27, 0x00	; 0

0000007c <.Loc.3>:
      7c:	01 c0       	rjmp	.+2      	; 0x80 <.Loc.5>

0000007e <.Loc.4>:
      7e:	1d 92       	st	X+, r1

00000080 <.Loc.5>:
      80:	a9 30       	cpi	r26, 0x09	; 9

00000082 <.Loc.6>:
      82:	b2 07       	cpc	r27, r18

00000084 <.Loc.7>:
      84:	e1 f7       	brne	.-8      	; 0x7e <.Loc.4>

00000086 <L0^A>:
      86:	0e 94 77 19 	call	0x32ee	; 0x32ee <main>
      8a:	0c 94 db 1d 	jmp	0x3bb6	; 0x3bb6 <_exit>

0000008e <__bad_interrupt>:
      8e:	0c 94 00 00 	jmp	0	; 0x0 <__vectors>

00000092 <MDIO_voidInit>:
      92:	cf 93       	push	r28
      94:	df 93       	push	r29
      96:	cd b7       	in	r28, 0x3d	; 61
      98:	de b7       	in	r29, 0x3e	; 62

0000009a <.LM1>:
      9a:	8b e3       	ldi	r24, 0x3B	; 59
      9c:	90 e0       	ldi	r25, 0x00	; 0

0000009e <.LM2>:
      9e:	2f ef       	ldi	r18, 0xFF	; 255
      a0:	fc 01       	movw	r30, r24
      a2:	20 83       	st	Z, r18

000000a4 <.LM3>:
      a4:	88 e3       	ldi	r24, 0x38	; 56
      a6:	90 e0       	ldi	r25, 0x00	; 0

000000a8 <.LM4>:
      a8:	2f ef       	ldi	r18, 0xFF	; 255
      aa:	fc 01       	movw	r30, r24
      ac:	20 83       	st	Z, r18

000000ae <.LM5>:
      ae:	85 e3       	ldi	r24, 0x35	; 53
      b0:	90 e0       	ldi	r25, 0x00	; 0

000000b2 <.LM6>:
      b2:	2f ef       	ldi	r18, 0xFF	; 255
      b4:	fc 01       	movw	r30, r24
      b6:	20 83       	st	Z, r18

000000b8 <.LM7>:
      b8:	82 e3       	ldi	r24, 0x32	; 50
      ba:	90 e0       	ldi	r25, 0x00	; 0

000000bc <.LM8>:
      bc:	2f ef       	ldi	r18, 0xFF	; 255
      be:	fc 01       	movw	r30, r24
      c0:	20 83       	st	Z, r18

000000c2 <.LM9>:
      c2:	8a e3       	ldi	r24, 0x3A	; 58
      c4:	90 e0       	ldi	r25, 0x00	; 0

000000c6 <.LM10>:
      c6:	20 ef       	ldi	r18, 0xF0	; 240
      c8:	fc 01       	movw	r30, r24
      ca:	20 83       	st	Z, r18

000000cc <.LM11>:
      cc:	87 e3       	ldi	r24, 0x37	; 55
      ce:	90 e0       	ldi	r25, 0x00	; 0

000000d0 <.LM12>:
      d0:	2f ef       	ldi	r18, 0xFF	; 255
      d2:	fc 01       	movw	r30, r24
      d4:	20 83       	st	Z, r18

000000d6 <.LM13>:
      d6:	84 e3       	ldi	r24, 0x34	; 52
      d8:	90 e0       	ldi	r25, 0x00	; 0

000000da <.LM14>:
      da:	2f ef       	ldi	r18, 0xFF	; 255
      dc:	fc 01       	movw	r30, r24
      de:	20 83       	st	Z, r18

000000e0 <.LM15>:
      e0:	81 e3       	ldi	r24, 0x31	; 49
      e2:	90 e0       	ldi	r25, 0x00	; 0

000000e4 <.LM16>:
      e4:	2f ef       	ldi	r18, 0xFF	; 255
      e6:	fc 01       	movw	r30, r24
      e8:	20 83       	st	Z, r18

000000ea <.LM17>:
      ea:	00 00       	nop
      ec:	df 91       	pop	r29
      ee:	cf 91       	pop	r28
      f0:	08 95       	ret

000000f2 <MDIO_enuSetPinValue>:
      f2:	cf 93       	push	r28
      f4:	df 93       	push	r29
      f6:	00 d0       	rcall	.+0      	; 0xf8 <L0^A>

000000f8 <L0^A>:
      f8:	0f 92       	push	r0
      fa:	cd b7       	in	r28, 0x3d	; 61
      fc:	de b7       	in	r29, 0x3e	; 62
      fe:	8a 83       	std	Y+2, r24	; 0x02
     100:	6b 83       	std	Y+3, r22	; 0x03

00000102 <.LM19>:
     102:	19 82       	std	Y+1, r1	; 0x01

00000104 <.LM20>:
     104:	8a 81       	ldd	r24, Y+2	; 0x02
     106:	8f 31       	cpi	r24, 0x1F	; 31
     108:	11 f0       	breq	.+4      	; 0x10e <.LM21>

0000010a <L0^A>:
     10a:	08 f0       	brcs	.+2      	; 0x10e <.LM21>

0000010c <L0^A>:
     10c:	0d c1       	rjmp	.+538    	; 0x328 <.L3>

0000010e <.LM21>:
     10e:	8a 81       	ldd	r24, Y+2	; 0x02
     110:	88 2f       	mov	r24, r24
     112:	90 e0       	ldi	r25, 0x00	; 0
     114:	8f 31       	cpi	r24, 0x1F	; 31
     116:	91 05       	cpc	r25, r1
     118:	11 f0       	breq	.+4      	; 0x11e <.Lname50>

0000011a <L0^A>:
     11a:	0c f0       	brlt	.+2      	; 0x11e <.Lname50>

0000011c <L0^A>:
     11c:	07 c1       	rjmp	.+526    	; 0x32c <.L22>
     11e:	88 31       	cpi	r24, 0x18	; 24
     120:	91 05       	cpc	r25, r1
     122:	0c f0       	brlt	.+2      	; 0x126 <L0^A+0x2>

00000124 <L0^A>:
     124:	c5 c0       	rjmp	.+394    	; 0x2b0 <.L5>
     126:	87 31       	cpi	r24, 0x17	; 23
     128:	91 05       	cpc	r25, r1
     12a:	11 f0       	breq	.+4      	; 0x130 <L0^A+0x2>

0000012c <L0^A>:
     12c:	0c f0       	brlt	.+2      	; 0x130 <L0^A+0x2>

0000012e <L0^A>:
     12e:	fe c0       	rjmp	.+508    	; 0x32c <.L22>
     130:	80 31       	cpi	r24, 0x10	; 16
     132:	91 05       	cpc	r25, r1
     134:	0c f0       	brlt	.+2      	; 0x138 <.Lname55>

00000136 <L0^A>:
     136:	80 c0       	rjmp	.+256    	; 0x238 <.L6>
     138:	87 30       	cpi	r24, 0x07	; 7
     13a:	91 05       	cpc	r25, r1
     13c:	09 f0       	breq	.+2      	; 0x140 <L0^A+0x2>

0000013e <L0^A>:
     13e:	1c f4       	brge	.+6      	; 0x146 <.L7>
     140:	99 23       	and	r25, r25
     142:	44 f4       	brge	.+16     	; 0x154 <.L8>
     144:	f3 c0       	rjmp	.+486    	; 0x32c <.L22>

00000146 <.L7>:
     146:	08 97       	sbiw	r24, 0x08	; 8
     148:	87 30       	cpi	r24, 0x07	; 7
     14a:	91 05       	cpc	r25, r1
     14c:	11 f0       	breq	.+4      	; 0x152 <L0^A+0x2>

0000014e <L0^A>:
     14e:	08 f0       	brcs	.+2      	; 0x152 <L0^A+0x2>

00000150 <L0^A>:
     150:	ed c0       	rjmp	.+474    	; 0x32c <.L22>
     152:	36 c0       	rjmp	.+108    	; 0x1c0 <.L24>

00000154 <.L8>:
     154:	8b 81       	ldd	r24, Y+3	; 0x03
     156:	81 30       	cpi	r24, 0x01	; 1
     158:	b1 f4       	brne	.+44     	; 0x186 <.L10>

0000015a <.LM23>:
     15a:	8b e3       	ldi	r24, 0x3B	; 59
     15c:	90 e0       	ldi	r25, 0x00	; 0
     15e:	fc 01       	movw	r30, r24
     160:	80 81       	ld	r24, Z
     162:	48 2f       	mov	r20, r24
     164:	8a 81       	ldd	r24, Y+2	; 0x02
     166:	28 2f       	mov	r18, r24
     168:	30 e0       	ldi	r19, 0x00	; 0
     16a:	81 e0       	ldi	r24, 0x01	; 1
     16c:	90 e0       	ldi	r25, 0x00	; 0
     16e:	02 c0       	rjmp	.+4      	; 0x174 <.L2^B1>

00000170 <.L1^B1>:
     170:	88 0f       	add	r24, r24
     172:	99 1f       	adc	r25, r25

00000174 <.L2^B1>:
     174:	2a 95       	dec	r18
     176:	e2 f7       	brpl	.-8      	; 0x170 <.L1^B1>
     178:	24 2f       	mov	r18, r20
     17a:	28 2b       	or	r18, r24
     17c:	8b e3       	ldi	r24, 0x3B	; 59
     17e:	90 e0       	ldi	r25, 0x00	; 0
     180:	fc 01       	movw	r30, r24
     182:	20 83       	st	Z, r18

00000184 <.LM24>:
     184:	d3 c0       	rjmp	.+422    	; 0x32c <.L22>

00000186 <.L10>:
     186:	8b 81       	ldd	r24, Y+3	; 0x03
     188:	88 23       	and	r24, r24
     18a:	b9 f4       	brne	.+46     	; 0x1ba <.L12>

0000018c <.LM26>:
     18c:	8b e3       	ldi	r24, 0x3B	; 59
     18e:	90 e0       	ldi	r25, 0x00	; 0
     190:	fc 01       	movw	r30, r24
     192:	80 81       	ld	r24, Z
     194:	48 2f       	mov	r20, r24
     196:	8a 81       	ldd	r24, Y+2	; 0x02
     198:	28 2f       	mov	r18, r24
     19a:	30 e0       	ldi	r19, 0x00	; 0
     19c:	81 e0       	ldi	r24, 0x01	; 1
     19e:	90 e0       	ldi	r25, 0x00	; 0
     1a0:	02 c0       	rjmp	.+4      	; 0x1a6 <.L2^B2>

000001a2 <.L1^B2>:
     1a2:	88 0f       	add	r24, r24
     1a4:	99 1f       	adc	r25, r25

000001a6 <.L2^B2>:
     1a6:	2a 95       	dec	r18
     1a8:	e2 f7       	brpl	.-8      	; 0x1a2 <.L1^B2>
     1aa:	80 95       	com	r24
     1ac:	24 2f       	mov	r18, r20
     1ae:	28 23       	and	r18, r24
     1b0:	8b e3       	ldi	r24, 0x3B	; 59
     1b2:	90 e0       	ldi	r25, 0x00	; 0
     1b4:	fc 01       	movw	r30, r24
     1b6:	20 83       	st	Z, r18

000001b8 <.LM27>:
     1b8:	b9 c0       	rjmp	.+370    	; 0x32c <.L22>

000001ba <.L12>:
     1ba:	81 e0       	ldi	r24, 0x01	; 1
     1bc:	89 83       	std	Y+1, r24	; 0x01

000001be <.LM29>:
     1be:	b6 c0       	rjmp	.+364    	; 0x32c <.L22>

000001c0 <.L24>:
     1c0:	8b 81       	ldd	r24, Y+3	; 0x03
     1c2:	81 30       	cpi	r24, 0x01	; 1
     1c4:	c9 f4       	brne	.+50     	; 0x1f8 <.L13>

000001c6 <.LM31>:
     1c6:	88 e3       	ldi	r24, 0x38	; 56
     1c8:	90 e0       	ldi	r25, 0x00	; 0
     1ca:	fc 01       	movw	r30, r24
     1cc:	80 81       	ld	r24, Z
     1ce:	48 2f       	mov	r20, r24
     1d0:	8a 81       	ldd	r24, Y+2	; 0x02
     1d2:	88 2f       	mov	r24, r24
     1d4:	90 e0       	ldi	r25, 0x00	; 0
     1d6:	9c 01       	movw	r18, r24
     1d8:	27 70       	andi	r18, 0x07	; 7
     1da:	33 27       	eor	r19, r19
     1dc:	81 e0       	ldi	r24, 0x01	; 1
     1de:	90 e0       	ldi	r25, 0x00	; 0
     1e0:	02 c0       	rjmp	.+4      	; 0x1e6 <.L2^B3>

000001e2 <.L1^B3>:
     1e2:	88 0f       	add	r24, r24
     1e4:	99 1f       	adc	r25, r25

000001e6 <.L2^B3>:
     1e6:	2a 95       	dec	r18
     1e8:	e2 f7       	brpl	.-8      	; 0x1e2 <.L1^B3>
     1ea:	24 2f       	mov	r18, r20
     1ec:	28 2b       	or	r18, r24
     1ee:	88 e3       	ldi	r24, 0x38	; 56
     1f0:	90 e0       	ldi	r25, 0x00	; 0
     1f2:	fc 01       	movw	r30, r24
     1f4:	20 83       	st	Z, r18

000001f6 <.LM32>:
     1f6:	9a c0       	rjmp	.+308    	; 0x32c <.L22>

000001f8 <.L13>:
     1f8:	8b 81       	ldd	r24, Y+3	; 0x03
     1fa:	88 23       	and	r24, r24
     1fc:	d1 f4       	brne	.+52     	; 0x232 <.L15>

000001fe <.LM34>:
     1fe:	88 e3       	ldi	r24, 0x38	; 56
     200:	90 e0       	ldi	r25, 0x00	; 0
     202:	fc 01       	movw	r30, r24
     204:	80 81       	ld	r24, Z
     206:	48 2f       	mov	r20, r24
     208:	8a 81       	ldd	r24, Y+2	; 0x02
     20a:	88 2f       	mov	r24, r24
     20c:	90 e0       	ldi	r25, 0x00	; 0
     20e:	9c 01       	movw	r18, r24
     210:	27 70       	andi	r18, 0x07	; 7
     212:	33 27       	eor	r19, r19
     214:	81 e0       	ldi	r24, 0x01	; 1
     216:	90 e0       	ldi	r25, 0x00	; 0
     218:	02 c0       	rjmp	.+4      	; 0x21e <.L2^B4>

0000021a <.L1^B4>:
     21a:	88 0f       	add	r24, r24
     21c:	99 1f       	adc	r25, r25

0000021e <.L2^B4>:
     21e:	2a 95       	dec	r18
     220:	e2 f7       	brpl	.-8      	; 0x21a <.L1^B4>
     222:	80 95       	com	r24
     224:	24 2f       	mov	r18, r20
     226:	28 23       	and	r18, r24
     228:	88 e3       	ldi	r24, 0x38	; 56
     22a:	90 e0       	ldi	r25, 0x00	; 0
     22c:	fc 01       	movw	r30, r24
     22e:	20 83       	st	Z, r18

00000230 <.LM35>:
     230:	7d c0       	rjmp	.+250    	; 0x32c <.L22>

00000232 <.L15>:
     232:	81 e0       	ldi	r24, 0x01	; 1
     234:	89 83       	std	Y+1, r24	; 0x01

00000236 <.LM37>:
     236:	7a c0       	rjmp	.+244    	; 0x32c <.L22>

00000238 <.L6>:
     238:	8b 81       	ldd	r24, Y+3	; 0x03
     23a:	81 30       	cpi	r24, 0x01	; 1
     23c:	c9 f4       	brne	.+50     	; 0x270 <.L16>

0000023e <.LM39>:
     23e:	85 e3       	ldi	r24, 0x35	; 53
     240:	90 e0       	ldi	r25, 0x00	; 0
     242:	fc 01       	movw	r30, r24
     244:	80 81       	ld	r24, Z
     246:	48 2f       	mov	r20, r24
     248:	8a 81       	ldd	r24, Y+2	; 0x02
     24a:	88 2f       	mov	r24, r24
     24c:	90 e0       	ldi	r25, 0x00	; 0
     24e:	9c 01       	movw	r18, r24
     250:	27 70       	andi	r18, 0x07	; 7
     252:	33 27       	eor	r19, r19
     254:	81 e0       	ldi	r24, 0x01	; 1
     256:	90 e0       	ldi	r25, 0x00	; 0
     258:	02 c0       	rjmp	.+4      	; 0x25e <.L2^B5>

0000025a <.L1^B5>:
     25a:	88 0f       	add	r24, r24
     25c:	99 1f       	adc	r25, r25

0000025e <.L2^B5>:
     25e:	2a 95       	dec	r18
     260:	e2 f7       	brpl	.-8      	; 0x25a <.L1^B5>
     262:	24 2f       	mov	r18, r20
     264:	28 2b       	or	r18, r24
     266:	85 e3       	ldi	r24, 0x35	; 53
     268:	90 e0       	ldi	r25, 0x00	; 0
     26a:	fc 01       	movw	r30, r24
     26c:	20 83       	st	Z, r18

0000026e <.LM40>:
     26e:	5e c0       	rjmp	.+188    	; 0x32c <.L22>

00000270 <.L16>:
     270:	8b 81       	ldd	r24, Y+3	; 0x03
     272:	88 23       	and	r24, r24
     274:	d1 f4       	brne	.+52     	; 0x2aa <.L18>

00000276 <.LM42>:
     276:	85 e3       	ldi	r24, 0x35	; 53
     278:	90 e0       	ldi	r25, 0x00	; 0
     27a:	fc 01       	movw	r30, r24
     27c:	80 81       	ld	r24, Z
     27e:	48 2f       	mov	r20, r24
     280:	8a 81       	ldd	r24, Y+2	; 0x02
     282:	88 2f       	mov	r24, r24
     284:	90 e0       	ldi	r25, 0x00	; 0
     286:	9c 01       	movw	r18, r24
     288:	27 70       	andi	r18, 0x07	; 7
     28a:	33 27       	eor	r19, r19
     28c:	81 e0       	ldi	r24, 0x01	; 1
     28e:	90 e0       	ldi	r25, 0x00	; 0
     290:	02 c0       	rjmp	.+4      	; 0x296 <.L2^B6>

00000292 <.L1^B6>:
     292:	88 0f       	add	r24, r24
     294:	99 1f       	adc	r25, r25

00000296 <.L2^B6>:
     296:	2a 95       	dec	r18
     298:	e2 f7       	brpl	.-8      	; 0x292 <.L1^B6>
     29a:	80 95       	com	r24
     29c:	24 2f       	mov	r18, r20
     29e:	28 23       	and	r18, r24
     2a0:	85 e3       	ldi	r24, 0x35	; 53
     2a2:	90 e0       	ldi	r25, 0x00	; 0
     2a4:	fc 01       	movw	r30, r24
     2a6:	20 83       	st	Z, r18

000002a8 <.LM43>:
     2a8:	41 c0       	rjmp	.+130    	; 0x32c <.L22>

000002aa <.L18>:
     2aa:	81 e0       	ldi	r24, 0x01	; 1
     2ac:	89 83       	std	Y+1, r24	; 0x01

000002ae <.LM45>:
     2ae:	3e c0       	rjmp	.+124    	; 0x32c <.L22>

000002b0 <.L5>:
     2b0:	8b 81       	ldd	r24, Y+3	; 0x03
     2b2:	81 30       	cpi	r24, 0x01	; 1
     2b4:	c9 f4       	brne	.+50     	; 0x2e8 <.L19>

000002b6 <.LM47>:
     2b6:	82 e3       	ldi	r24, 0x32	; 50
     2b8:	90 e0       	ldi	r25, 0x00	; 0
     2ba:	fc 01       	movw	r30, r24
     2bc:	80 81       	ld	r24, Z
     2be:	48 2f       	mov	r20, r24
     2c0:	8a 81       	ldd	r24, Y+2	; 0x02
     2c2:	88 2f       	mov	r24, r24
     2c4:	90 e0       	ldi	r25, 0x00	; 0
     2c6:	9c 01       	movw	r18, r24
     2c8:	27 70       	andi	r18, 0x07	; 7
     2ca:	33 27       	eor	r19, r19
     2cc:	81 e0       	ldi	r24, 0x01	; 1
     2ce:	90 e0       	ldi	r25, 0x00	; 0
     2d0:	02 c0       	rjmp	.+4      	; 0x2d6 <.L2^B7>

000002d2 <.L1^B7>:
     2d2:	88 0f       	add	r24, r24
     2d4:	99 1f       	adc	r25, r25

000002d6 <.L2^B7>:
     2d6:	2a 95       	dec	r18
     2d8:	e2 f7       	brpl	.-8      	; 0x2d2 <.L1^B7>
     2da:	24 2f       	mov	r18, r20
     2dc:	28 2b       	or	r18, r24
     2de:	82 e3       	ldi	r24, 0x32	; 50
     2e0:	90 e0       	ldi	r25, 0x00	; 0
     2e2:	fc 01       	movw	r30, r24
     2e4:	20 83       	st	Z, r18

000002e6 <.LM48>:
     2e6:	22 c0       	rjmp	.+68     	; 0x32c <.L22>

000002e8 <.L19>:
     2e8:	8b 81       	ldd	r24, Y+3	; 0x03
     2ea:	88 23       	and	r24, r24
     2ec:	d1 f4       	brne	.+52     	; 0x322 <.L21>

000002ee <.LM50>:
     2ee:	82 e3       	ldi	r24, 0x32	; 50
     2f0:	90 e0       	ldi	r25, 0x00	; 0
     2f2:	fc 01       	movw	r30, r24
     2f4:	80 81       	ld	r24, Z
     2f6:	48 2f       	mov	r20, r24
     2f8:	8a 81       	ldd	r24, Y+2	; 0x02
     2fa:	88 2f       	mov	r24, r24
     2fc:	90 e0       	ldi	r25, 0x00	; 0
     2fe:	9c 01       	movw	r18, r24
     300:	27 70       	andi	r18, 0x07	; 7
     302:	33 27       	eor	r19, r19
     304:	81 e0       	ldi	r24, 0x01	; 1
     306:	90 e0       	ldi	r25, 0x00	; 0
     308:	02 c0       	rjmp	.+4      	; 0x30e <.L2^B8>

0000030a <.L1^B8>:
     30a:	88 0f       	add	r24, r24
     30c:	99 1f       	adc	r25, r25

0000030e <.L2^B8>:
     30e:	2a 95       	dec	r18
     310:	e2 f7       	brpl	.-8      	; 0x30a <.L1^B8>
     312:	80 95       	com	r24
     314:	24 2f       	mov	r18, r20
     316:	28 23       	and	r18, r24
     318:	82 e3       	ldi	r24, 0x32	; 50
     31a:	90 e0       	ldi	r25, 0x00	; 0
     31c:	fc 01       	movw	r30, r24
     31e:	20 83       	st	Z, r18

00000320 <.LM51>:
     320:	05 c0       	rjmp	.+10     	; 0x32c <.L22>

00000322 <.L21>:
     322:	81 e0       	ldi	r24, 0x01	; 1
     324:	89 83       	std	Y+1, r24	; 0x01

00000326 <.LM53>:
     326:	02 c0       	rjmp	.+4      	; 0x32c <.L22>

00000328 <.L3>:
     328:	82 e0       	ldi	r24, 0x02	; 2
     32a:	89 83       	std	Y+1, r24	; 0x01

0000032c <.L22>:
     32c:	89 81       	ldd	r24, Y+1	; 0x01

0000032e <.LM56>:
     32e:	0f 90       	pop	r0
     330:	0f 90       	pop	r0
     332:	0f 90       	pop	r0
     334:	df 91       	pop	r29
     336:	cf 91       	pop	r28
     338:	08 95       	ret

0000033a <MDIO_enuReadPinValue>:
     33a:	cf 93       	push	r28
     33c:	df 93       	push	r29
     33e:	00 d0       	rcall	.+0      	; 0x340 <L0^A>

00000340 <L0^A>:
     340:	00 d0       	rcall	.+0      	; 0x342 <L0^A>

00000342 <L0^A>:
     342:	cd b7       	in	r28, 0x3d	; 61
     344:	de b7       	in	r29, 0x3e	; 62
     346:	8a 83       	std	Y+2, r24	; 0x02
     348:	7c 83       	std	Y+4, r23	; 0x04
     34a:	6b 83       	std	Y+3, r22	; 0x03

0000034c <.LM58>:
     34c:	19 82       	std	Y+1, r1	; 0x01

0000034e <.LM59>:
     34e:	8b 81       	ldd	r24, Y+3	; 0x03
     350:	9c 81       	ldd	r25, Y+4	; 0x04
     352:	00 97       	sbiw	r24, 0x00	; 0
     354:	09 f4       	brne	.+2      	; 0x358 <.LM60>

00000356 <L0^A>:
     356:	7f c0       	rjmp	.+254    	; 0x456 <.L26>

00000358 <.LM60>:
     358:	8a 81       	ldd	r24, Y+2	; 0x02
     35a:	88 2f       	mov	r24, r24
     35c:	90 e0       	ldi	r25, 0x00	; 0
     35e:	8f 31       	cpi	r24, 0x1F	; 31
     360:	91 05       	cpc	r25, r1
     362:	11 f0       	breq	.+4      	; 0x368 <L0^A+0x2>

00000364 <L0^A>:
     364:	0c f0       	brlt	.+2      	; 0x368 <L0^A+0x2>

00000366 <L0^A>:
     366:	74 c0       	rjmp	.+232    	; 0x450 <.L27>
     368:	88 31       	cpi	r24, 0x18	; 24
     36a:	91 05       	cpc	r25, r1
     36c:	0c f0       	brlt	.+2      	; 0x370 <L0^A+0x2>

0000036e <L0^A>:
     36e:	59 c0       	rjmp	.+178    	; 0x422 <.L28>
     370:	87 31       	cpi	r24, 0x17	; 23
     372:	91 05       	cpc	r25, r1
     374:	11 f0       	breq	.+4      	; 0x37a <L0^A+0x2>

00000376 <L0^A>:
     376:	0c f0       	brlt	.+2      	; 0x37a <L0^A+0x2>

00000378 <L0^A>:
     378:	6b c0       	rjmp	.+214    	; 0x450 <.L27>
     37a:	80 31       	cpi	r24, 0x10	; 16
     37c:	91 05       	cpc	r25, r1
     37e:	d4 f5       	brge	.+116    	; 0x3f4 <.L29>
     380:	87 30       	cpi	r24, 0x07	; 7
     382:	91 05       	cpc	r25, r1
     384:	09 f0       	breq	.+2      	; 0x388 <L0^A+0x2>

00000386 <L0^A>:
     386:	1c f4       	brge	.+6      	; 0x38e <.L30>
     388:	99 23       	and	r25, r25
     38a:	44 f4       	brge	.+16     	; 0x39c <.L31>
     38c:	61 c0       	rjmp	.+194    	; 0x450 <.L27>

0000038e <.L30>:
     38e:	08 97       	sbiw	r24, 0x08	; 8
     390:	87 30       	cpi	r24, 0x07	; 7
     392:	91 05       	cpc	r25, r1
     394:	11 f0       	breq	.+4      	; 0x39a <L0^A+0x2>

00000396 <L0^A>:
     396:	08 f0       	brcs	.+2      	; 0x39a <L0^A+0x2>

00000398 <L0^A>:
     398:	5b c0       	rjmp	.+182    	; 0x450 <.L27>
     39a:	15 c0       	rjmp	.+42     	; 0x3c6 <.L36>

0000039c <.L31>:
     39c:	89 e3       	ldi	r24, 0x39	; 57
     39e:	90 e0       	ldi	r25, 0x00	; 0
     3a0:	fc 01       	movw	r30, r24
     3a2:	80 81       	ld	r24, Z
     3a4:	88 2f       	mov	r24, r24
     3a6:	90 e0       	ldi	r25, 0x00	; 0
     3a8:	2a 81       	ldd	r18, Y+2	; 0x02
     3aa:	22 2f       	mov	r18, r18
     3ac:	30 e0       	ldi	r19, 0x00	; 0
     3ae:	02 c0       	rjmp	.+4      	; 0x3b4 <.L2^B9>

000003b0 <.L1^B9>:
     3b0:	95 95       	asr	r25
     3b2:	87 95       	ror	r24

000003b4 <.L2^B9>:
     3b4:	2a 95       	dec	r18
     3b6:	e2 f7       	brpl	.-8      	; 0x3b0 <.L1^B9>
     3b8:	28 2f       	mov	r18, r24
     3ba:	21 70       	andi	r18, 0x01	; 1

000003bc <.LM62>:
     3bc:	8b 81       	ldd	r24, Y+3	; 0x03
     3be:	9c 81       	ldd	r25, Y+4	; 0x04
     3c0:	fc 01       	movw	r30, r24
     3c2:	20 83       	st	Z, r18

000003c4 <.LM63>:
     3c4:	4a c0       	rjmp	.+148    	; 0x45a <.L34>

000003c6 <.L36>:
     3c6:	86 e3       	ldi	r24, 0x36	; 54
     3c8:	90 e0       	ldi	r25, 0x00	; 0
     3ca:	fc 01       	movw	r30, r24
     3cc:	80 81       	ld	r24, Z
     3ce:	88 2f       	mov	r24, r24
     3d0:	90 e0       	ldi	r25, 0x00	; 0
     3d2:	2a 81       	ldd	r18, Y+2	; 0x02
     3d4:	22 2f       	mov	r18, r18
     3d6:	30 e0       	ldi	r19, 0x00	; 0
     3d8:	27 70       	andi	r18, 0x07	; 7
     3da:	33 27       	eor	r19, r19
     3dc:	02 c0       	rjmp	.+4      	; 0x3e2 <.L2^B10>

000003de <.L1^B10>:
     3de:	95 95       	asr	r25
     3e0:	87 95       	ror	r24

000003e2 <.L2^B10>:
     3e2:	2a 95       	dec	r18
     3e4:	e2 f7       	brpl	.-8      	; 0x3de <.L1^B10>
     3e6:	28 2f       	mov	r18, r24
     3e8:	21 70       	andi	r18, 0x01	; 1

000003ea <.LM65>:
     3ea:	8b 81       	ldd	r24, Y+3	; 0x03
     3ec:	9c 81       	ldd	r25, Y+4	; 0x04
     3ee:	fc 01       	movw	r30, r24
     3f0:	20 83       	st	Z, r18

000003f2 <.LM66>:
     3f2:	33 c0       	rjmp	.+102    	; 0x45a <.L34>

000003f4 <.L29>:
     3f4:	83 e3       	ldi	r24, 0x33	; 51
     3f6:	90 e0       	ldi	r25, 0x00	; 0
     3f8:	fc 01       	movw	r30, r24
     3fa:	80 81       	ld	r24, Z
     3fc:	88 2f       	mov	r24, r24
     3fe:	90 e0       	ldi	r25, 0x00	; 0
     400:	2a 81       	ldd	r18, Y+2	; 0x02
     402:	22 2f       	mov	r18, r18
     404:	30 e0       	ldi	r19, 0x00	; 0
     406:	27 70       	andi	r18, 0x07	; 7
     408:	33 27       	eor	r19, r19
     40a:	02 c0       	rjmp	.+4      	; 0x410 <.L2^B11>

0000040c <.L1^B11>:
     40c:	95 95       	asr	r25
     40e:	87 95       	ror	r24

00000410 <.L2^B11>:
     410:	2a 95       	dec	r18
     412:	e2 f7       	brpl	.-8      	; 0x40c <.L1^B11>
     414:	28 2f       	mov	r18, r24
     416:	21 70       	andi	r18, 0x01	; 1

00000418 <.LM68>:
     418:	8b 81       	ldd	r24, Y+3	; 0x03
     41a:	9c 81       	ldd	r25, Y+4	; 0x04
     41c:	fc 01       	movw	r30, r24
     41e:	20 83       	st	Z, r18

00000420 <.LM69>:
     420:	1c c0       	rjmp	.+56     	; 0x45a <.L34>

00000422 <.L28>:
     422:	80 e3       	ldi	r24, 0x30	; 48
     424:	90 e0       	ldi	r25, 0x00	; 0
     426:	fc 01       	movw	r30, r24
     428:	80 81       	ld	r24, Z
     42a:	88 2f       	mov	r24, r24
     42c:	90 e0       	ldi	r25, 0x00	; 0
     42e:	2a 81       	ldd	r18, Y+2	; 0x02
     430:	22 2f       	mov	r18, r18
     432:	30 e0       	ldi	r19, 0x00	; 0
     434:	27 70       	andi	r18, 0x07	; 7
     436:	33 27       	eor	r19, r19
     438:	02 c0       	rjmp	.+4      	; 0x43e <.L2^B12>

0000043a <.L1^B12>:
     43a:	95 95       	asr	r25
     43c:	87 95       	ror	r24

0000043e <.L2^B12>:
     43e:	2a 95       	dec	r18
     440:	e2 f7       	brpl	.-8      	; 0x43a <.L1^B12>
     442:	28 2f       	mov	r18, r24
     444:	21 70       	andi	r18, 0x01	; 1

00000446 <.LM71>:
     446:	8b 81       	ldd	r24, Y+3	; 0x03
     448:	9c 81       	ldd	r25, Y+4	; 0x04
     44a:	fc 01       	movw	r30, r24
     44c:	20 83       	st	Z, r18

0000044e <.LM72>:
     44e:	05 c0       	rjmp	.+10     	; 0x45a <.L34>

00000450 <.L27>:
     450:	82 e0       	ldi	r24, 0x02	; 2
     452:	89 83       	std	Y+1, r24	; 0x01
     454:	02 c0       	rjmp	.+4      	; 0x45a <.L34>

00000456 <.L26>:
     456:	81 e0       	ldi	r24, 0x01	; 1
     458:	89 83       	std	Y+1, r24	; 0x01

0000045a <.L34>:
     45a:	89 81       	ldd	r24, Y+1	; 0x01

0000045c <.LM76>:
     45c:	0f 90       	pop	r0
     45e:	0f 90       	pop	r0
     460:	0f 90       	pop	r0
     462:	0f 90       	pop	r0
     464:	df 91       	pop	r29
     466:	cf 91       	pop	r28
     468:	08 95       	ret

0000046a <MDIO_enuSetGroupValue>:
     46a:	cf 93       	push	r28
     46c:	df 93       	push	r29
     46e:	00 d0       	rcall	.+0      	; 0x470 <L0^A>

00000470 <L0^A>:
     470:	00 d0       	rcall	.+0      	; 0x472 <L0^A>

00000472 <L0^A>:
     472:	00 d0       	rcall	.+0      	; 0x474 <L0^A>

00000474 <L0^A>:
     474:	0f 92       	push	r0
     476:	cd b7       	in	r28, 0x3d	; 61
     478:	de b7       	in	r29, 0x3e	; 62
     47a:	9c 83       	std	Y+4, r25	; 0x04
     47c:	8b 83       	std	Y+3, r24	; 0x03
     47e:	7e 83       	std	Y+6, r23	; 0x06
     480:	6d 83       	std	Y+5, r22	; 0x05
     482:	4f 83       	std	Y+7, r20	; 0x07

00000484 <.LM78>:
     484:	19 82       	std	Y+1, r1	; 0x01

00000486 <.LM79>:
     486:	1a 82       	std	Y+2, r1	; 0x02

00000488 <.LM80>:
     488:	1a 82       	std	Y+2, r1	; 0x02

0000048a <.LM81>:
     48a:	1c c0       	rjmp	.+56     	; 0x4c4 <.L38>

0000048c <.L41>:
     48c:	8a 81       	ldd	r24, Y+2	; 0x02
     48e:	88 2f       	mov	r24, r24
     490:	90 e0       	ldi	r25, 0x00	; 0
     492:	2d 81       	ldd	r18, Y+5	; 0x05
     494:	3e 81       	ldd	r19, Y+6	; 0x06
     496:	82 0f       	add	r24, r18
     498:	93 1f       	adc	r25, r19

0000049a <.LM83>:
     49a:	fc 01       	movw	r30, r24
     49c:	40 81       	ld	r20, Z

0000049e <.LM84>:
     49e:	8a 81       	ldd	r24, Y+2	; 0x02
     4a0:	88 2f       	mov	r24, r24
     4a2:	90 e0       	ldi	r25, 0x00	; 0
     4a4:	2b 81       	ldd	r18, Y+3	; 0x03
     4a6:	3c 81       	ldd	r19, Y+4	; 0x04
     4a8:	82 0f       	add	r24, r18
     4aa:	93 1f       	adc	r25, r19

000004ac <.LM85>:
     4ac:	fc 01       	movw	r30, r24
     4ae:	80 81       	ld	r24, Z
     4b0:	64 2f       	mov	r22, r20
     4b2:	0e 94 79 00 	call	0xf2	; 0xf2 <MDIO_enuSetPinValue>
     4b6:	89 83       	std	Y+1, r24	; 0x01

000004b8 <.LM86>:
     4b8:	89 81       	ldd	r24, Y+1	; 0x01
     4ba:	88 23       	and	r24, r24
     4bc:	41 f4       	brne	.+16     	; 0x4ce <.L43>

000004be <.LM87>:
     4be:	8a 81       	ldd	r24, Y+2	; 0x02
     4c0:	8f 5f       	subi	r24, 0xFF	; 255
     4c2:	8a 83       	std	Y+2, r24	; 0x02

000004c4 <.L38>:
     4c4:	9a 81       	ldd	r25, Y+2	; 0x02
     4c6:	8f 81       	ldd	r24, Y+7	; 0x07
     4c8:	98 17       	cp	r25, r24
     4ca:	00 f3       	brcs	.-64     	; 0x48c <.L41>
     4cc:	01 c0       	rjmp	.+2      	; 0x4d0 <.L40>

000004ce <.L43>:
	...

000004d0 <.L40>:
     4d0:	89 81       	ldd	r24, Y+1	; 0x01

000004d2 <.LM91>:
     4d2:	27 96       	adiw	r28, 0x07	; 7
     4d4:	0f b6       	in	r0, 0x3f	; 63
     4d6:	f8 94       	cli
     4d8:	de bf       	out	0x3e, r29	; 62
     4da:	0f be       	out	0x3f, r0	; 63
     4dc:	cd bf       	out	0x3d, r28	; 61
     4de:	df 91       	pop	r29
     4e0:	cf 91       	pop	r28
     4e2:	08 95       	ret

000004e4 <MDIO_enuPullUpState>:
     4e4:	cf 93       	push	r28
     4e6:	df 93       	push	r29
     4e8:	00 d0       	rcall	.+0      	; 0x4ea <L0^A>

000004ea <L0^A>:
     4ea:	0f 92       	push	r0
     4ec:	cd b7       	in	r28, 0x3d	; 61
     4ee:	de b7       	in	r29, 0x3e	; 62
     4f0:	8a 83       	std	Y+2, r24	; 0x02
     4f2:	6b 83       	std	Y+3, r22	; 0x03

000004f4 <.LM93>:
     4f4:	19 82       	std	Y+1, r1	; 0x01

000004f6 <.LM94>:
     4f6:	6b 81       	ldd	r22, Y+3	; 0x03
     4f8:	8a 81       	ldd	r24, Y+2	; 0x02
     4fa:	0e 94 79 00 	call	0xf2	; 0xf2 <MDIO_enuSetPinValue>
     4fe:	89 83       	std	Y+1, r24	; 0x01

00000500 <.LM95>:
     500:	89 81       	ldd	r24, Y+1	; 0x01

00000502 <.LM96>:
     502:	0f 90       	pop	r0
     504:	0f 90       	pop	r0
     506:	0f 90       	pop	r0
     508:	df 91       	pop	r29
     50a:	cf 91       	pop	r28
     50c:	08 95       	ret

0000050e <MDIO_enuSetPortValue>:
     50e:	cf 93       	push	r28
     510:	df 93       	push	r29
     512:	00 d0       	rcall	.+0      	; 0x514 <L0^A>

00000514 <L0^A>:
     514:	0f 92       	push	r0
     516:	cd b7       	in	r28, 0x3d	; 61
     518:	de b7       	in	r29, 0x3e	; 62
     51a:	8a 83       	std	Y+2, r24	; 0x02
     51c:	6b 83       	std	Y+3, r22	; 0x03

0000051e <.LM98>:
     51e:	19 82       	std	Y+1, r1	; 0x01

00000520 <.LM99>:
     520:	8a 81       	ldd	r24, Y+2	; 0x02
     522:	88 2f       	mov	r24, r24
     524:	90 e0       	ldi	r25, 0x00	; 0
     526:	83 30       	cpi	r24, 0x03	; 3
     528:	91 05       	cpc	r25, r1
     52a:	19 f1       	breq	.+70     	; 0x572 <.L47>
     52c:	83 30       	cpi	r24, 0x03	; 3
     52e:	91 05       	cpc	r25, r1
     530:	09 f0       	breq	.+2      	; 0x534 <L0^A+0x2>

00000532 <L0^A>:
     532:	2c f5       	brge	.+74     	; 0x57e <.L48>
     534:	82 30       	cpi	r24, 0x02	; 2
     536:	91 05       	cpc	r25, r1
     538:	b1 f0       	breq	.+44     	; 0x566 <.L49>
     53a:	82 30       	cpi	r24, 0x02	; 2
     53c:	91 05       	cpc	r25, r1
     53e:	09 f0       	breq	.+2      	; 0x542 <L0^A+0x2>

00000540 <L0^A>:
     540:	f4 f4       	brge	.+60     	; 0x57e <.L48>
     542:	00 97       	sbiw	r24, 0x00	; 0
     544:	21 f0       	breq	.+8      	; 0x54e <.L50>
     546:	81 30       	cpi	r24, 0x01	; 1
     548:	91 05       	cpc	r25, r1
     54a:	39 f0       	breq	.+14     	; 0x55a <.L51>
     54c:	18 c0       	rjmp	.+48     	; 0x57e <.L48>

0000054e <.L50>:
     54e:	8b e3       	ldi	r24, 0x3B	; 59
     550:	90 e0       	ldi	r25, 0x00	; 0

00000552 <.LM101>:
     552:	2b 81       	ldd	r18, Y+3	; 0x03
     554:	fc 01       	movw	r30, r24
     556:	20 83       	st	Z, r18

00000558 <.LM102>:
     558:	15 c0       	rjmp	.+42     	; 0x584 <.L52>

0000055a <.L51>:
     55a:	88 e3       	ldi	r24, 0x38	; 56
     55c:	90 e0       	ldi	r25, 0x00	; 0

0000055e <.LM104>:
     55e:	2b 81       	ldd	r18, Y+3	; 0x03
     560:	fc 01       	movw	r30, r24
     562:	20 83       	st	Z, r18

00000564 <.LM105>:
     564:	0f c0       	rjmp	.+30     	; 0x584 <.L52>

00000566 <.L49>:
     566:	85 e3       	ldi	r24, 0x35	; 53
     568:	90 e0       	ldi	r25, 0x00	; 0

0000056a <.LM107>:
     56a:	2b 81       	ldd	r18, Y+3	; 0x03
     56c:	fc 01       	movw	r30, r24
     56e:	20 83       	st	Z, r18

00000570 <.LM108>:
     570:	09 c0       	rjmp	.+18     	; 0x584 <.L52>

00000572 <.L47>:
     572:	82 e3       	ldi	r24, 0x32	; 50
     574:	90 e0       	ldi	r25, 0x00	; 0

00000576 <.LM110>:
     576:	2b 81       	ldd	r18, Y+3	; 0x03
     578:	fc 01       	movw	r30, r24
     57a:	20 83       	st	Z, r18

0000057c <.LM111>:
     57c:	03 c0       	rjmp	.+6      	; 0x584 <.L52>

0000057e <.L48>:
     57e:	82 e0       	ldi	r24, 0x02	; 2
     580:	89 83       	std	Y+1, r24	; 0x01

00000582 <.LM113>:
	...

00000584 <.L52>:
     584:	89 81       	ldd	r24, Y+1	; 0x01

00000586 <.LM115>:
     586:	0f 90       	pop	r0
     588:	0f 90       	pop	r0
     58a:	0f 90       	pop	r0
     58c:	df 91       	pop	r29
     58e:	cf 91       	pop	r28
     590:	08 95       	ret

00000592 <MGI_voidGIEnable>:
     592:	cf 93       	push	r28
     594:	df 93       	push	r29
     596:	cd b7       	in	r28, 0x3d	; 61
     598:	de b7       	in	r29, 0x3e	; 62

0000059a <.LM1>:
     59a:	8f e5       	ldi	r24, 0x5F	; 95
     59c:	90 e0       	ldi	r25, 0x00	; 0
     59e:	fc 01       	movw	r30, r24
     5a0:	20 81       	ld	r18, Z
     5a2:	8f e5       	ldi	r24, 0x5F	; 95
     5a4:	90 e0       	ldi	r25, 0x00	; 0
     5a6:	20 68       	ori	r18, 0x80	; 128
     5a8:	fc 01       	movw	r30, r24
     5aa:	20 83       	st	Z, r18

000005ac <.LM2>:
     5ac:	00 00       	nop
     5ae:	df 91       	pop	r29
     5b0:	cf 91       	pop	r28
     5b2:	08 95       	ret

000005b4 <MGI_voidGIDisable>:
     5b4:	cf 93       	push	r28
     5b6:	df 93       	push	r29
     5b8:	cd b7       	in	r28, 0x3d	; 61
     5ba:	de b7       	in	r29, 0x3e	; 62

000005bc <.LM4>:
     5bc:	8f e5       	ldi	r24, 0x5F	; 95
     5be:	90 e0       	ldi	r25, 0x00	; 0
     5c0:	fc 01       	movw	r30, r24
     5c2:	20 81       	ld	r18, Z
     5c4:	8f e5       	ldi	r24, 0x5F	; 95
     5c6:	90 e0       	ldi	r25, 0x00	; 0
     5c8:	2f 77       	andi	r18, 0x7F	; 127
     5ca:	fc 01       	movw	r30, r24
     5cc:	20 83       	st	Z, r18

000005ce <.LM5>:
     5ce:	00 00       	nop
     5d0:	df 91       	pop	r29
     5d2:	cf 91       	pop	r28
     5d4:	08 95       	ret

000005d6 <HKPAD_voidInit>:
     5d6:	cf 93       	push	r28
     5d8:	df 93       	push	r29
     5da:	0f 92       	push	r0
     5dc:	cd b7       	in	r28, 0x3d	; 61
     5de:	de b7       	in	r29, 0x3e	; 62

000005e0 <.LM1>:
     5e0:	19 82       	std	Y+1, r1	; 0x01

000005e2 <.LM2>:
     5e2:	19 82       	std	Y+1, r1	; 0x01

000005e4 <.LM3>:
     5e4:	0d c0       	rjmp	.+26     	; 0x600 <.L2>

000005e6 <.L3>:
     5e6:	89 81       	ldd	r24, Y+1	; 0x01
     5e8:	88 2f       	mov	r24, r24
     5ea:	90 e0       	ldi	r25, 0x00	; 0
     5ec:	8c 59       	subi	r24, 0x9C	; 156
     5ee:	9f 4f       	sbci	r25, 0xFF	; 255
     5f0:	fc 01       	movw	r30, r24
     5f2:	80 81       	ld	r24, Z
     5f4:	61 e0       	ldi	r22, 0x01	; 1
     5f6:	0e 94 79 00 	call	0xf2	; 0xf2 <MDIO_enuSetPinValue>

000005fa <.LM5>:
     5fa:	89 81       	ldd	r24, Y+1	; 0x01
     5fc:	8f 5f       	subi	r24, 0xFF	; 255
     5fe:	89 83       	std	Y+1, r24	; 0x01

00000600 <.L2>:
     600:	89 81       	ldd	r24, Y+1	; 0x01
     602:	83 30       	cpi	r24, 0x03	; 3
     604:	81 f3       	breq	.-32     	; 0x5e6 <.L3>
     606:	78 f3       	brcs	.-34     	; 0x5e6 <.L3>

00000608 <.LM7>:
     608:	19 82       	std	Y+1, r1	; 0x01

0000060a <.LM8>:
     60a:	0d c0       	rjmp	.+26     	; 0x626 <.L4>

0000060c <.L5>:
     60c:	89 81       	ldd	r24, Y+1	; 0x01
     60e:	88 2f       	mov	r24, r24
     610:	90 e0       	ldi	r25, 0x00	; 0
     612:	80 5a       	subi	r24, 0xA0	; 160
     614:	9f 4f       	sbci	r25, 0xFF	; 255
     616:	fc 01       	movw	r30, r24
     618:	80 81       	ld	r24, Z
     61a:	61 e0       	ldi	r22, 0x01	; 1
     61c:	0e 94 72 02 	call	0x4e4	; 0x4e4 <MDIO_enuPullUpState>

00000620 <.LM10>:
     620:	89 81       	ldd	r24, Y+1	; 0x01
     622:	8f 5f       	subi	r24, 0xFF	; 255
     624:	89 83       	std	Y+1, r24	; 0x01

00000626 <.L4>:
     626:	89 81       	ldd	r24, Y+1	; 0x01
     628:	83 30       	cpi	r24, 0x03	; 3
     62a:	81 f3       	breq	.-32     	; 0x60c <.L5>
     62c:	78 f3       	brcs	.-34     	; 0x60c <.L5>

0000062e <.LM12>:
     62e:	00 00       	nop
     630:	00 00       	nop
     632:	0f 90       	pop	r0
     634:	df 91       	pop	r29
     636:	cf 91       	pop	r28
     638:	08 95       	ret

0000063a <KPAD_uint8GetPressedKey>:
     63a:	cf 93       	push	r28
     63c:	df 93       	push	r29
     63e:	00 d0       	rcall	.+0      	; 0x640 <L0^A>

00000640 <L0^A>:
     640:	00 d0       	rcall	.+0      	; 0x642 <L0^A>

00000642 <L0^A>:
     642:	cd b7       	in	r28, 0x3d	; 61
     644:	de b7       	in	r29, 0x3e	; 62

00000646 <.LM14>:
     646:	19 82       	std	Y+1, r1	; 0x01

00000648 <.LM15>:
     648:	1a 82       	std	Y+2, r1	; 0x02

0000064a <.LM16>:
     64a:	1c 82       	std	Y+4, r1	; 0x04

0000064c <.LM17>:
     64c:	8f ef       	ldi	r24, 0xFF	; 255
     64e:	8b 83       	std	Y+3, r24	; 0x03

00000650 <.LM18>:
     650:	19 82       	std	Y+1, r1	; 0x01

00000652 <.LM19>:
     652:	56 c0       	rjmp	.+172    	; 0x700 <.L7>

00000654 <.L16>:
     654:	89 81       	ldd	r24, Y+1	; 0x01
     656:	88 2f       	mov	r24, r24
     658:	90 e0       	ldi	r25, 0x00	; 0
     65a:	8c 59       	subi	r24, 0x9C	; 156
     65c:	9f 4f       	sbci	r25, 0xFF	; 255
     65e:	fc 01       	movw	r30, r24
     660:	80 81       	ld	r24, Z
     662:	60 e0       	ldi	r22, 0x00	; 0
     664:	0e 94 79 00 	call	0xf2	; 0xf2 <MDIO_enuSetPinValue>

00000668 <.LM21>:
     668:	1a 82       	std	Y+2, r1	; 0x02

0000066a <.LM22>:
     66a:	36 c0       	rjmp	.+108    	; 0x6d8 <.L8>

0000066c <.L13>:
     66c:	8a 81       	ldd	r24, Y+2	; 0x02
     66e:	88 2f       	mov	r24, r24
     670:	90 e0       	ldi	r25, 0x00	; 0
     672:	80 5a       	subi	r24, 0xA0	; 160
     674:	9f 4f       	sbci	r25, 0xFF	; 255
     676:	fc 01       	movw	r30, r24
     678:	20 81       	ld	r18, Z
     67a:	ce 01       	movw	r24, r28
     67c:	04 96       	adiw	r24, 0x04	; 4
     67e:	bc 01       	movw	r22, r24
     680:	82 2f       	mov	r24, r18
     682:	0e 94 9d 01 	call	0x33a	; 0x33a <MDIO_enuReadPinValue>

00000686 <.LM24>:
     686:	8c 81       	ldd	r24, Y+4	; 0x04

00000688 <.LM25>:
     688:	88 23       	and	r24, r24
     68a:	19 f5       	brne	.+70     	; 0x6d2 <.L9>

0000068c <.LM26>:
     68c:	0d c0       	rjmp	.+26     	; 0x6a8 <.L10>

0000068e <.L11>:
     68e:	8a 81       	ldd	r24, Y+2	; 0x02
     690:	88 2f       	mov	r24, r24
     692:	90 e0       	ldi	r25, 0x00	; 0
     694:	80 5a       	subi	r24, 0xA0	; 160
     696:	9f 4f       	sbci	r25, 0xFF	; 255
     698:	fc 01       	movw	r30, r24
     69a:	20 81       	ld	r18, Z
     69c:	ce 01       	movw	r24, r28
     69e:	04 96       	adiw	r24, 0x04	; 4
     6a0:	bc 01       	movw	r22, r24
     6a2:	82 2f       	mov	r24, r18
     6a4:	0e 94 9d 01 	call	0x33a	; 0x33a <MDIO_enuReadPinValue>

000006a8 <.L10>:
     6a8:	8c 81       	ldd	r24, Y+4	; 0x04
     6aa:	88 23       	and	r24, r24
     6ac:	81 f3       	breq	.-32     	; 0x68e <.L11>

000006ae <.LM29>:
     6ae:	89 81       	ldd	r24, Y+1	; 0x01
     6b0:	28 2f       	mov	r18, r24
     6b2:	30 e0       	ldi	r19, 0x00	; 0
     6b4:	8a 81       	ldd	r24, Y+2	; 0x02
     6b6:	88 2f       	mov	r24, r24
     6b8:	90 e0       	ldi	r25, 0x00	; 0

000006ba <.LM30>:
     6ba:	22 0f       	add	r18, r18
     6bc:	33 1f       	adc	r19, r19
     6be:	22 0f       	add	r18, r18
     6c0:	33 1f       	adc	r19, r19
     6c2:	82 0f       	add	r24, r18
     6c4:	93 1f       	adc	r25, r19
     6c6:	88 59       	subi	r24, 0x98	; 152
     6c8:	9f 4f       	sbci	r25, 0xFF	; 255
     6ca:	fc 01       	movw	r30, r24
     6cc:	80 81       	ld	r24, Z
     6ce:	8b 83       	std	Y+3, r24	; 0x03

000006d0 <.LM31>:
     6d0:	07 c0       	rjmp	.+14     	; 0x6e0 <.L12>

000006d2 <.L9>:
     6d2:	8a 81       	ldd	r24, Y+2	; 0x02
     6d4:	8f 5f       	subi	r24, 0xFF	; 255
     6d6:	8a 83       	std	Y+2, r24	; 0x02

000006d8 <.L8>:
     6d8:	8a 81       	ldd	r24, Y+2	; 0x02
     6da:	83 30       	cpi	r24, 0x03	; 3
     6dc:	39 f2       	breq	.-114    	; 0x66c <.L13>
     6de:	30 f2       	brcs	.-116    	; 0x66c <.L13>

000006e0 <.L12>:
     6e0:	89 81       	ldd	r24, Y+1	; 0x01
     6e2:	88 2f       	mov	r24, r24
     6e4:	90 e0       	ldi	r25, 0x00	; 0
     6e6:	8c 59       	subi	r24, 0x9C	; 156
     6e8:	9f 4f       	sbci	r25, 0xFF	; 255
     6ea:	fc 01       	movw	r30, r24
     6ec:	80 81       	ld	r24, Z
     6ee:	61 e0       	ldi	r22, 0x01	; 1
     6f0:	0e 94 79 00 	call	0xf2	; 0xf2 <MDIO_enuSetPinValue>

000006f4 <.LM35>:
     6f4:	8b 81       	ldd	r24, Y+3	; 0x03
     6f6:	8f 3f       	cpi	r24, 0xFF	; 255
     6f8:	49 f4       	brne	.+18     	; 0x70c <.L18>

000006fa <.LM36>:
     6fa:	89 81       	ldd	r24, Y+1	; 0x01
     6fc:	8f 5f       	subi	r24, 0xFF	; 255
     6fe:	89 83       	std	Y+1, r24	; 0x01

00000700 <.L7>:
     700:	89 81       	ldd	r24, Y+1	; 0x01
     702:	83 30       	cpi	r24, 0x03	; 3
     704:	09 f0       	breq	.+2      	; 0x708 <L0^A>

00000706 <L0^A>:
     706:	08 f4       	brcc	.+2      	; 0x70a <L0^A+0x2>

00000708 <L0^A>:
     708:	a5 cf       	rjmp	.-182    	; 0x654 <.L16>
     70a:	01 c0       	rjmp	.+2      	; 0x70e <.L15>

0000070c <.L18>:
	...

0000070e <.L15>:
     70e:	8b 81       	ldd	r24, Y+3	; 0x03

00000710 <.LM40>:
     710:	0f 90       	pop	r0
     712:	0f 90       	pop	r0
     714:	0f 90       	pop	r0
     716:	0f 90       	pop	r0
     718:	df 91       	pop	r29
     71a:	cf 91       	pop	r28
     71c:	08 95       	ret

0000071e <HLCD_voidInit>:
     71e:	0f 93       	push	r16
     720:	1f 93       	push	r17
     722:	cf 93       	push	r28
     724:	df 93       	push	r29
     726:	cd b7       	in	r28, 0x3d	; 61
     728:	de b7       	in	r29, 0x3e	; 62
     72a:	c4 53       	subi	r28, 0x34	; 52
     72c:	d1 40       	sbci	r29, 0x01	; 1
     72e:	0f b6       	in	r0, 0x3f	; 63
     730:	f8 94       	cli
     732:	de bf       	out	0x3e, r29	; 62
     734:	0f be       	out	0x3f, r0	; 63
     736:	cd bf       	out	0x3d, r28	; 61

00000738 <.LM1>:
     738:	19 82       	std	Y+1, r1	; 0x01

0000073a <.LM2>:
     73a:	1a 82       	std	Y+2, r1	; 0x02

0000073c <.LM3>:
     73c:	19 82       	std	Y+1, r1	; 0x01

0000073e <.LM4>:
     73e:	0c 94 f7 0c 	jmp	0x19ee	; 0x19ee <.L2>

00000742 <.L77>:
     742:	80 e0       	ldi	r24, 0x00	; 0
     744:	90 e0       	ldi	r25, 0x00	; 0
     746:	a0 ef       	ldi	r26, 0xF0	; 240
     748:	b1 e4       	ldi	r27, 0x41	; 65
     74a:	8b 83       	std	Y+3, r24	; 0x03
     74c:	9c 83       	std	Y+4, r25	; 0x04
     74e:	ad 83       	std	Y+5, r26	; 0x05
     750:	be 83       	std	Y+6, r27	; 0x06

00000752 <.LM5>:
     752:	20 e0       	ldi	r18, 0x00	; 0
     754:	30 e0       	ldi	r19, 0x00	; 0
     756:	4a ef       	ldi	r20, 0xFA	; 250
     758:	54 e4       	ldi	r21, 0x44	; 68
     75a:	6b 81       	ldd	r22, Y+3	; 0x03
     75c:	7c 81       	ldd	r23, Y+4	; 0x04
     75e:	8d 81       	ldd	r24, Y+5	; 0x05
     760:	9e 81       	ldd	r25, Y+6	; 0x06
     762:	0e 94 6e 1d 	call	0x3adc	; 0x3adc <__mulsf3>
     766:	cb 55       	subi	r28, 0x5B	; 91
     768:	df 4f       	sbci	r29, 0xFF	; 255
     76a:	68 83       	st	Y, r22
     76c:	79 83       	std	Y+1, r23	; 0x01
     76e:	8a 83       	std	Y+2, r24	; 0x02
     770:	9b 83       	std	Y+3, r25	; 0x03
     772:	c5 5a       	subi	r28, 0xA5	; 165
     774:	d0 40       	sbci	r29, 0x00	; 0
     776:	cb 55       	subi	r28, 0x5B	; 91
     778:	df 4f       	sbci	r29, 0xFF	; 255
     77a:	88 81       	ld	r24, Y
     77c:	99 81       	ldd	r25, Y+1	; 0x01
     77e:	aa 81       	ldd	r26, Y+2	; 0x02
     780:	bb 81       	ldd	r27, Y+3	; 0x03
     782:	c5 5a       	subi	r28, 0xA5	; 165
     784:	d0 40       	sbci	r29, 0x00	; 0
     786:	8f 83       	std	Y+7, r24	; 0x07
     788:	98 87       	std	Y+8, r25	; 0x08
     78a:	a9 87       	std	Y+9, r26	; 0x09
     78c:	ba 87       	std	Y+10, r27	; 0x0a

0000078e <.LM6>:
     78e:	20 e0       	ldi	r18, 0x00	; 0
     790:	30 e0       	ldi	r19, 0x00	; 0
     792:	40 e8       	ldi	r20, 0x80	; 128
     794:	5f e3       	ldi	r21, 0x3F	; 63
     796:	6f 81       	ldd	r22, Y+7	; 0x07
     798:	78 85       	ldd	r23, Y+8	; 0x08
     79a:	89 85       	ldd	r24, Y+9	; 0x09
     79c:	9a 85       	ldd	r25, Y+10	; 0x0a
     79e:	0e 94 11 1c 	call	0x3822	; 0x3822 <__cmpsf2>
     7a2:	88 23       	and	r24, r24
     7a4:	2c f4       	brge	.+10     	; 0x7b0 <.L96>

000007a6 <.LM7>:
     7a6:	81 e0       	ldi	r24, 0x01	; 1
     7a8:	90 e0       	ldi	r25, 0x00	; 0
     7aa:	9c 87       	std	Y+12, r25	; 0x0c
     7ac:	8b 87       	std	Y+11, r24	; 0x0b
     7ae:	76 c0       	rjmp	.+236    	; 0x89c <.L5>

000007b0 <.L96>:
     7b0:	20 e0       	ldi	r18, 0x00	; 0
     7b2:	3f ef       	ldi	r19, 0xFF	; 255
     7b4:	4f e7       	ldi	r20, 0x7F	; 127
     7b6:	57 e4       	ldi	r21, 0x47	; 71
     7b8:	6f 81       	ldd	r22, Y+7	; 0x07
     7ba:	78 85       	ldd	r23, Y+8	; 0x08
     7bc:	89 85       	ldd	r24, Y+9	; 0x09
     7be:	9a 85       	ldd	r25, Y+10	; 0x0a
     7c0:	0e 94 69 1d 	call	0x3ad2	; 0x3ad2 <__gesf2>
     7c4:	88 23       	and	r24, r24
     7c6:	09 f0       	breq	.+2      	; 0x7ca <L0^A>

000007c8 <L0^A>:
     7c8:	0c f4       	brge	.+2      	; 0x7cc <.LM9>

000007ca <L0^A>:
     7ca:	52 c0       	rjmp	.+164    	; 0x870 <.L97>

000007cc <.LM9>:
     7cc:	20 e0       	ldi	r18, 0x00	; 0
     7ce:	30 e0       	ldi	r19, 0x00	; 0
     7d0:	40 e2       	ldi	r20, 0x20	; 32
     7d2:	51 e4       	ldi	r21, 0x41	; 65
     7d4:	6b 81       	ldd	r22, Y+3	; 0x03
     7d6:	7c 81       	ldd	r23, Y+4	; 0x04
     7d8:	8d 81       	ldd	r24, Y+5	; 0x05
     7da:	9e 81       	ldd	r25, Y+6	; 0x06
     7dc:	0e 94 6e 1d 	call	0x3adc	; 0x3adc <__mulsf3>
     7e0:	c7 55       	subi	r28, 0x57	; 87
     7e2:	df 4f       	sbci	r29, 0xFF	; 255
     7e4:	68 83       	st	Y, r22
     7e6:	79 83       	std	Y+1, r23	; 0x01
     7e8:	8a 83       	std	Y+2, r24	; 0x02
     7ea:	9b 83       	std	Y+3, r25	; 0x03
     7ec:	c9 5a       	subi	r28, 0xA9	; 169
     7ee:	d0 40       	sbci	r29, 0x00	; 0
     7f0:	c7 55       	subi	r28, 0x57	; 87
     7f2:	df 4f       	sbci	r29, 0xFF	; 255
     7f4:	88 81       	ld	r24, Y
     7f6:	99 81       	ldd	r25, Y+1	; 0x01
     7f8:	aa 81       	ldd	r26, Y+2	; 0x02
     7fa:	bb 81       	ldd	r27, Y+3	; 0x03
     7fc:	c9 5a       	subi	r28, 0xA9	; 169
     7fe:	d0 40       	sbci	r29, 0x00	; 0
     800:	cf 57       	subi	r28, 0x7F	; 127
     802:	df 4f       	sbci	r29, 0xFF	; 255
     804:	88 83       	st	Y, r24
     806:	99 83       	std	Y+1, r25	; 0x01
     808:	aa 83       	std	Y+2, r26	; 0x02
     80a:	bb 83       	std	Y+3, r27	; 0x03
     80c:	c1 58       	subi	r28, 0x81	; 129
     80e:	d0 40       	sbci	r29, 0x00	; 0

00000810 <.LM10>:
     810:	cf 57       	subi	r28, 0x7F	; 127
     812:	df 4f       	sbci	r29, 0xFF	; 255
     814:	68 81       	ld	r22, Y
     816:	79 81       	ldd	r23, Y+1	; 0x01
     818:	8a 81       	ldd	r24, Y+2	; 0x02
     81a:	9b 81       	ldd	r25, Y+3	; 0x03
     81c:	c1 58       	subi	r28, 0x81	; 129
     81e:	d0 40       	sbci	r29, 0x00	; 0
     820:	0e 94 88 1c 	call	0x3910	; 0x3910 <__fixunssfsi>
     824:	c3 55       	subi	r28, 0x53	; 83
     826:	df 4f       	sbci	r29, 0xFF	; 255
     828:	68 83       	st	Y, r22
     82a:	79 83       	std	Y+1, r23	; 0x01
     82c:	8a 83       	std	Y+2, r24	; 0x02
     82e:	9b 83       	std	Y+3, r25	; 0x03
     830:	cd 5a       	subi	r28, 0xAD	; 173
     832:	d0 40       	sbci	r29, 0x00	; 0
     834:	c3 55       	subi	r28, 0x53	; 83
     836:	df 4f       	sbci	r29, 0xFF	; 255
     838:	a8 81       	ld	r26, Y
     83a:	b9 81       	ldd	r27, Y+1	; 0x01
     83c:	cd 5a       	subi	r28, 0xAD	; 173
     83e:	d0 40       	sbci	r29, 0x00	; 0
     840:	bc 87       	std	Y+12, r27	; 0x0c
     842:	ab 87       	std	Y+11, r26	; 0x0b

00000844 <.LM11>:
     844:	10 c0       	rjmp	.+32     	; 0x866 <.L8>

00000846 <.L9>:
     846:	88 ec       	ldi	r24, 0xC8	; 200
     848:	90 e0       	ldi	r25, 0x00	; 0
     84a:	9e 87       	std	Y+14, r25	; 0x0e
     84c:	8d 87       	std	Y+13, r24	; 0x0d

0000084e <.LM12>:
     84e:	8d 85       	ldd	r24, Y+13	; 0x0d
     850:	9e 85       	ldd	r25, Y+14	; 0x0e

00000852 <.L1^B1>:
     852:	01 97       	sbiw	r24, 0x01	; 1
     854:	f1 f7       	brne	.-4      	; 0x852 <.L1^B1>
     856:	9e 87       	std	Y+14, r25	; 0x0e
     858:	8d 87       	std	Y+13, r24	; 0x0d

0000085a <.LM13>:
	...

0000085c <.LM14>:
     85c:	8b 85       	ldd	r24, Y+11	; 0x0b
     85e:	9c 85       	ldd	r25, Y+12	; 0x0c
     860:	01 97       	sbiw	r24, 0x01	; 1
     862:	9c 87       	std	Y+12, r25	; 0x0c
     864:	8b 87       	std	Y+11, r24	; 0x0b

00000866 <.L8>:
     866:	8b 85       	ldd	r24, Y+11	; 0x0b
     868:	9c 85       	ldd	r25, Y+12	; 0x0c
     86a:	00 97       	sbiw	r24, 0x00	; 0
     86c:	61 f7       	brne	.-40     	; 0x846 <.L9>

0000086e <.LM16>:
     86e:	21 c0       	rjmp	.+66     	; 0x8b2 <.L10>

00000870 <.L97>:
     870:	6f 81       	ldd	r22, Y+7	; 0x07
     872:	78 85       	ldd	r23, Y+8	; 0x08
     874:	89 85       	ldd	r24, Y+9	; 0x09
     876:	9a 85       	ldd	r25, Y+10	; 0x0a
     878:	0e 94 88 1c 	call	0x3910	; 0x3910 <__fixunssfsi>
     87c:	cf 54       	subi	r28, 0x4F	; 79
     87e:	df 4f       	sbci	r29, 0xFF	; 255
     880:	68 83       	st	Y, r22
     882:	79 83       	std	Y+1, r23	; 0x01
     884:	8a 83       	std	Y+2, r24	; 0x02
     886:	9b 83       	std	Y+3, r25	; 0x03
     888:	c1 5b       	subi	r28, 0xB1	; 177
     88a:	d0 40       	sbci	r29, 0x00	; 0
     88c:	cf 54       	subi	r28, 0x4F	; 79
     88e:	df 4f       	sbci	r29, 0xFF	; 255
     890:	e8 81       	ld	r30, Y
     892:	f9 81       	ldd	r31, Y+1	; 0x01
     894:	c1 5b       	subi	r28, 0xB1	; 177
     896:	d0 40       	sbci	r29, 0x00	; 0
     898:	fc 87       	std	Y+12, r31	; 0x0c
     89a:	eb 87       	std	Y+11, r30	; 0x0b

0000089c <.L5>:
     89c:	8b 85       	ldd	r24, Y+11	; 0x0b
     89e:	9c 85       	ldd	r25, Y+12	; 0x0c
     8a0:	98 8b       	std	Y+16, r25	; 0x10
     8a2:	8f 87       	std	Y+15, r24	; 0x0f

000008a4 <.LM18>:
     8a4:	8f 85       	ldd	r24, Y+15	; 0x0f
     8a6:	98 89       	ldd	r25, Y+16	; 0x10

000008a8 <.L1^B2>:
     8a8:	01 97       	sbiw	r24, 0x01	; 1
     8aa:	f1 f7       	brne	.-4      	; 0x8a8 <.L1^B2>
     8ac:	98 8b       	std	Y+16, r25	; 0x10
     8ae:	8f 87       	std	Y+15, r24	; 0x0f

000008b0 <.LM19>:
	...

000008b2 <.L10>:
     8b2:	89 81       	ldd	r24, Y+1	; 0x01
     8b4:	28 2f       	mov	r18, r24
     8b6:	30 e0       	ldi	r19, 0x00	; 0
     8b8:	4d e0       	ldi	r20, 0x0D	; 13
     8ba:	42 9f       	mul	r20, r18
     8bc:	c0 01       	movw	r24, r0
     8be:	43 9f       	mul	r20, r19
     8c0:	90 0d       	add	r25, r0
     8c2:	11 24       	eor	r1, r1
     8c4:	8d 57       	subi	r24, 0x7D	; 125
     8c6:	9f 4f       	sbci	r25, 0xFF	; 255
     8c8:	dc 01       	movw	r26, r24
     8ca:	8c 91       	ld	r24, X

000008cc <.LM21>:
     8cc:	81 30       	cpi	r24, 0x01	; 1
     8ce:	09 f0       	breq	.+2      	; 0x8d2 <.LM22>

000008d0 <L0^A>:
     8d0:	be c3       	rjmp	.+1916   	; 0x104e <.L11>

000008d2 <.LM22>:
     8d2:	80 e3       	ldi	r24, 0x30	; 48
     8d4:	8a 83       	std	Y+2, r24	; 0x02

000008d6 <.LM23>:
     8d6:	89 81       	ldd	r24, Y+1	; 0x01
     8d8:	28 2f       	mov	r18, r24
     8da:	30 e0       	ldi	r19, 0x00	; 0
     8dc:	4d e0       	ldi	r20, 0x0D	; 13
     8de:	42 9f       	mul	r20, r18
     8e0:	c0 01       	movw	r24, r0
     8e2:	43 9f       	mul	r20, r19
     8e4:	90 0d       	add	r25, r0
     8e6:	11 24       	eor	r1, r1
     8e8:	8c 57       	subi	r24, 0x7C	; 124
     8ea:	9f 4f       	sbci	r25, 0xFF	; 255
     8ec:	fc 01       	movw	r30, r24
     8ee:	80 81       	ld	r24, Z
     8f0:	81 70       	andi	r24, 0x01	; 1
     8f2:	88 2f       	mov	r24, r24
     8f4:	90 e0       	ldi	r25, 0x00	; 0

000008f6 <.LM24>:
     8f6:	88 0f       	add	r24, r24
     8f8:	99 1f       	adc	r25, r25
     8fa:	88 0f       	add	r24, r24
     8fc:	99 1f       	adc	r25, r25
     8fe:	88 0f       	add	r24, r24
     900:	99 1f       	adc	r25, r25

00000902 <.LM25>:
     902:	58 2f       	mov	r21, r24

00000904 <.LM26>:
     904:	89 81       	ldd	r24, Y+1	; 0x01
     906:	28 2f       	mov	r18, r24
     908:	30 e0       	ldi	r19, 0x00	; 0
     90a:	4d e0       	ldi	r20, 0x0D	; 13
     90c:	42 9f       	mul	r20, r18
     90e:	c0 01       	movw	r24, r0
     910:	43 9f       	mul	r20, r19
     912:	90 0d       	add	r25, r0
     914:	11 24       	eor	r1, r1
     916:	8c 57       	subi	r24, 0x7C	; 124
     918:	9f 4f       	sbci	r25, 0xFF	; 255
     91a:	dc 01       	movw	r26, r24
     91c:	8c 91       	ld	r24, X
     91e:	85 fb       	bst	r24, 5
     920:	88 27       	eor	r24, r24
     922:	80 f9       	bld	r24, 0
     924:	88 2f       	mov	r24, r24
     926:	90 e0       	ldi	r25, 0x00	; 0

00000928 <.LM27>:
     928:	88 0f       	add	r24, r24
     92a:	99 1f       	adc	r25, r25
     92c:	88 0f       	add	r24, r24
     92e:	99 1f       	adc	r25, r25

00000930 <.LM28>:
     930:	95 2f       	mov	r25, r21
     932:	98 2b       	or	r25, r24

00000934 <.LM29>:
     934:	8a 81       	ldd	r24, Y+2	; 0x02
     936:	89 2b       	or	r24, r25
     938:	8a 83       	std	Y+2, r24	; 0x02

0000093a <.LM30>:
     93a:	6a 81       	ldd	r22, Y+2	; 0x02
     93c:	89 81       	ldd	r24, Y+1	; 0x01
     93e:	0e 94 13 10 	call	0x2026	; 0x2026 <HLCD_voidSendCommand>
     942:	80 e0       	ldi	r24, 0x00	; 0
     944:	90 e0       	ldi	r25, 0x00	; 0
     946:	a0 e8       	ldi	r26, 0x80	; 128
     948:	bf e3       	ldi	r27, 0x3F	; 63
     94a:	8b af       	std	Y+59, r24	; 0x3b
     94c:	9c af       	std	Y+60, r25	; 0x3c
     94e:	ad af       	std	Y+61, r26	; 0x3d
     950:	be af       	std	Y+62, r27	; 0x3e

00000952 <.LM31>:
     952:	8e 01       	movw	r16, r28
     954:	01 5c       	subi	r16, 0xC1	; 193
     956:	1f 4f       	sbci	r17, 0xFF	; 255
     958:	20 e0       	ldi	r18, 0x00	; 0
     95a:	30 e0       	ldi	r19, 0x00	; 0
     95c:	4a ef       	ldi	r20, 0xFA	; 250
     95e:	54 e4       	ldi	r21, 0x44	; 68
     960:	6b ad       	ldd	r22, Y+59	; 0x3b
     962:	7c ad       	ldd	r23, Y+60	; 0x3c
     964:	8d ad       	ldd	r24, Y+61	; 0x3d
     966:	9e ad       	ldd	r25, Y+62	; 0x3e
     968:	0e 94 6e 1d 	call	0x3adc	; 0x3adc <__mulsf3>
     96c:	cb 54       	subi	r28, 0x4B	; 75
     96e:	df 4f       	sbci	r29, 0xFF	; 255
     970:	68 83       	st	Y, r22
     972:	79 83       	std	Y+1, r23	; 0x01
     974:	8a 83       	std	Y+2, r24	; 0x02
     976:	9b 83       	std	Y+3, r25	; 0x03
     978:	c5 5b       	subi	r28, 0xB5	; 181
     97a:	d0 40       	sbci	r29, 0x00	; 0
     97c:	cb 54       	subi	r28, 0x4B	; 75
     97e:	df 4f       	sbci	r29, 0xFF	; 255
     980:	88 81       	ld	r24, Y
     982:	99 81       	ldd	r25, Y+1	; 0x01
     984:	aa 81       	ldd	r26, Y+2	; 0x02
     986:	bb 81       	ldd	r27, Y+3	; 0x03
     988:	c5 5b       	subi	r28, 0xB5	; 181
     98a:	d0 40       	sbci	r29, 0x00	; 0
     98c:	f8 01       	movw	r30, r16
     98e:	80 83       	st	Z, r24
     990:	91 83       	std	Z+1, r25	; 0x01
     992:	a2 83       	std	Z+2, r26	; 0x02
     994:	b3 83       	std	Z+3, r27	; 0x03

00000996 <.LM32>:
     996:	ce 01       	movw	r24, r28
     998:	cf 96       	adiw	r24, 0x3f	; 63
     99a:	20 e0       	ldi	r18, 0x00	; 0
     99c:	30 e0       	ldi	r19, 0x00	; 0
     99e:	40 e8       	ldi	r20, 0x80	; 128
     9a0:	5f e3       	ldi	r21, 0x3F	; 63
     9a2:	dc 01       	movw	r26, r24
     9a4:	6d 91       	ld	r22, X+
     9a6:	7d 91       	ld	r23, X+
     9a8:	8d 91       	ld	r24, X+
     9aa:	9c 91       	ld	r25, X
     9ac:	0e 94 11 1c 	call	0x3822	; 0x3822 <__cmpsf2>
     9b0:	88 23       	and	r24, r24
     9b2:	4c f4       	brge	.+18     	; 0x9c6 <.L98>

000009b4 <.LM33>:
     9b4:	ce 01       	movw	r24, r28
     9b6:	8d 5b       	subi	r24, 0xBD	; 189
     9b8:	9f 4f       	sbci	r25, 0xFF	; 255
     9ba:	21 e0       	ldi	r18, 0x01	; 1
     9bc:	30 e0       	ldi	r19, 0x00	; 0
     9be:	fc 01       	movw	r30, r24
     9c0:	31 83       	std	Z+1, r19	; 0x01
     9c2:	20 83       	st	Z, r18
     9c4:	9f c0       	rjmp	.+318    	; 0xb04 <.L14>

000009c6 <.L98>:
     9c6:	ce 01       	movw	r24, r28
     9c8:	cf 96       	adiw	r24, 0x3f	; 63
     9ca:	20 e0       	ldi	r18, 0x00	; 0
     9cc:	3f ef       	ldi	r19, 0xFF	; 255
     9ce:	4f e7       	ldi	r20, 0x7F	; 127
     9d0:	57 e4       	ldi	r21, 0x47	; 71
     9d2:	dc 01       	movw	r26, r24
     9d4:	6d 91       	ld	r22, X+
     9d6:	7d 91       	ld	r23, X+
     9d8:	8d 91       	ld	r24, X+
     9da:	9c 91       	ld	r25, X
     9dc:	0e 94 69 1d 	call	0x3ad2	; 0x3ad2 <__gesf2>
     9e0:	88 23       	and	r24, r24
     9e2:	09 f0       	breq	.+2      	; 0x9e6 <L0^A>

000009e4 <L0^A>:
     9e4:	0c f4       	brge	.+2      	; 0x9e8 <.LM35>

000009e6 <L0^A>:
     9e6:	71 c0       	rjmp	.+226    	; 0xaca <.L99>

000009e8 <.LM35>:
     9e8:	20 e0       	ldi	r18, 0x00	; 0
     9ea:	30 e0       	ldi	r19, 0x00	; 0
     9ec:	40 e2       	ldi	r20, 0x20	; 32
     9ee:	51 e4       	ldi	r21, 0x41	; 65
     9f0:	6b ad       	ldd	r22, Y+59	; 0x3b
     9f2:	7c ad       	ldd	r23, Y+60	; 0x3c
     9f4:	8d ad       	ldd	r24, Y+61	; 0x3d
     9f6:	9e ad       	ldd	r25, Y+62	; 0x3e
     9f8:	0e 94 6e 1d 	call	0x3adc	; 0x3adc <__mulsf3>
     9fc:	c7 54       	subi	r28, 0x47	; 71
     9fe:	df 4f       	sbci	r29, 0xFF	; 255
     a00:	68 83       	st	Y, r22
     a02:	79 83       	std	Y+1, r23	; 0x01
     a04:	8a 83       	std	Y+2, r24	; 0x02
     a06:	9b 83       	std	Y+3, r25	; 0x03
     a08:	c9 5b       	subi	r28, 0xB9	; 185
     a0a:	d0 40       	sbci	r29, 0x00	; 0
     a0c:	c7 54       	subi	r28, 0x47	; 71
     a0e:	df 4f       	sbci	r29, 0xFF	; 255
     a10:	88 81       	ld	r24, Y
     a12:	99 81       	ldd	r25, Y+1	; 0x01
     a14:	aa 81       	ldd	r26, Y+2	; 0x02
     a16:	bb 81       	ldd	r27, Y+3	; 0x03
     a18:	c9 5b       	subi	r28, 0xB9	; 185
     a1a:	d0 40       	sbci	r29, 0x00	; 0
     a1c:	cf 56       	subi	r28, 0x6F	; 111
     a1e:	df 4f       	sbci	r29, 0xFF	; 255
     a20:	88 83       	st	Y, r24
     a22:	99 83       	std	Y+1, r25	; 0x01
     a24:	aa 83       	std	Y+2, r26	; 0x02
     a26:	bb 83       	std	Y+3, r27	; 0x03
     a28:	c1 59       	subi	r28, 0x91	; 145
     a2a:	d0 40       	sbci	r29, 0x00	; 0

00000a2c <.LM36>:
     a2c:	8e 01       	movw	r16, r28
     a2e:	0d 5b       	subi	r16, 0xBD	; 189
     a30:	1f 4f       	sbci	r17, 0xFF	; 255
     a32:	cf 56       	subi	r28, 0x6F	; 111
     a34:	df 4f       	sbci	r29, 0xFF	; 255
     a36:	68 81       	ld	r22, Y
     a38:	79 81       	ldd	r23, Y+1	; 0x01
     a3a:	8a 81       	ldd	r24, Y+2	; 0x02
     a3c:	9b 81       	ldd	r25, Y+3	; 0x03
     a3e:	c1 59       	subi	r28, 0x91	; 145
     a40:	d0 40       	sbci	r29, 0x00	; 0
     a42:	0e 94 88 1c 	call	0x3910	; 0x3910 <__fixunssfsi>
     a46:	c3 54       	subi	r28, 0x43	; 67
     a48:	df 4f       	sbci	r29, 0xFF	; 255
     a4a:	68 83       	st	Y, r22
     a4c:	79 83       	std	Y+1, r23	; 0x01
     a4e:	8a 83       	std	Y+2, r24	; 0x02
     a50:	9b 83       	std	Y+3, r25	; 0x03
     a52:	cd 5b       	subi	r28, 0xBD	; 189
     a54:	d0 40       	sbci	r29, 0x00	; 0
     a56:	c3 54       	subi	r28, 0x43	; 67
     a58:	df 4f       	sbci	r29, 0xFF	; 255
     a5a:	e8 81       	ld	r30, Y
     a5c:	f9 81       	ldd	r31, Y+1	; 0x01
     a5e:	cd 5b       	subi	r28, 0xBD	; 189
     a60:	d0 40       	sbci	r29, 0x00	; 0
     a62:	d8 01       	movw	r26, r16
     a64:	11 96       	adiw	r26, 0x01	; 1
     a66:	fc 93       	st	X, r31
     a68:	ee 93       	st	-X, r30

00000a6a <.LM37>:
     a6a:	26 c0       	rjmp	.+76     	; 0xab8 <.L17>

00000a6c <.L18>:
     a6c:	ce 01       	movw	r24, r28
     a6e:	8b 5b       	subi	r24, 0xBB	; 187
     a70:	9f 4f       	sbci	r25, 0xFF	; 255
     a72:	28 ec       	ldi	r18, 0xC8	; 200
     a74:	30 e0       	ldi	r19, 0x00	; 0
     a76:	dc 01       	movw	r26, r24
     a78:	2d 93       	st	X+, r18
     a7a:	3c 93       	st	X, r19

00000a7c <.LM38>:
     a7c:	ce 01       	movw	r24, r28
     a7e:	8b 5b       	subi	r24, 0xBB	; 187
     a80:	9f 4f       	sbci	r25, 0xFF	; 255
     a82:	fc 01       	movw	r30, r24
     a84:	80 81       	ld	r24, Z
     a86:	91 81       	ldd	r25, Z+1	; 0x01

00000a88 <.L1^B3>:
     a88:	01 97       	sbiw	r24, 0x01	; 1
     a8a:	f1 f7       	brne	.-4      	; 0xa88 <.L1^B3>
     a8c:	9e 01       	movw	r18, r28
     a8e:	2b 5b       	subi	r18, 0xBB	; 187
     a90:	3f 4f       	sbci	r19, 0xFF	; 255
     a92:	d9 01       	movw	r26, r18
     a94:	8d 93       	st	X+, r24
     a96:	9c 93       	st	X, r25

00000a98 <.LM39>:
	...

00000a9a <.LM40>:
     a9a:	ce 01       	movw	r24, r28
     a9c:	8d 5b       	subi	r24, 0xBD	; 189
     a9e:	9f 4f       	sbci	r25, 0xFF	; 255
     aa0:	9e 01       	movw	r18, r28
     aa2:	2d 5b       	subi	r18, 0xBD	; 189
     aa4:	3f 4f       	sbci	r19, 0xFF	; 255
     aa6:	f9 01       	movw	r30, r18
     aa8:	20 81       	ld	r18, Z
     aaa:	31 81       	ldd	r19, Z+1	; 0x01
     aac:	21 50       	subi	r18, 0x01	; 1
     aae:	31 09       	sbc	r19, r1
     ab0:	dc 01       	movw	r26, r24
     ab2:	11 96       	adiw	r26, 0x01	; 1
     ab4:	3c 93       	st	X, r19
     ab6:	2e 93       	st	-X, r18

00000ab8 <.L17>:
     ab8:	ce 01       	movw	r24, r28
     aba:	8d 5b       	subi	r24, 0xBD	; 189
     abc:	9f 4f       	sbci	r25, 0xFF	; 255
     abe:	fc 01       	movw	r30, r24
     ac0:	80 81       	ld	r24, Z
     ac2:	91 81       	ldd	r25, Z+1	; 0x01
     ac4:	00 97       	sbiw	r24, 0x00	; 0
     ac6:	91 f6       	brne	.-92     	; 0xa6c <.L18>

00000ac8 <.LM42>:
     ac8:	38 c0       	rjmp	.+112    	; 0xb3a <.L19>

00000aca <.L99>:
     aca:	8e 01       	movw	r16, r28
     acc:	0d 5b       	subi	r16, 0xBD	; 189
     ace:	1f 4f       	sbci	r17, 0xFF	; 255
     ad0:	ce 01       	movw	r24, r28
     ad2:	cf 96       	adiw	r24, 0x3f	; 63
     ad4:	dc 01       	movw	r26, r24
     ad6:	6d 91       	ld	r22, X+
     ad8:	7d 91       	ld	r23, X+
     ada:	8d 91       	ld	r24, X+
     adc:	9c 91       	ld	r25, X
     ade:	0e 94 88 1c 	call	0x3910	; 0x3910 <__fixunssfsi>
     ae2:	cf 53       	subi	r28, 0x3F	; 63
     ae4:	df 4f       	sbci	r29, 0xFF	; 255
     ae6:	68 83       	st	Y, r22
     ae8:	79 83       	std	Y+1, r23	; 0x01
     aea:	8a 83       	std	Y+2, r24	; 0x02
     aec:	9b 83       	std	Y+3, r25	; 0x03
     aee:	c1 5c       	subi	r28, 0xC1	; 193
     af0:	d0 40       	sbci	r29, 0x00	; 0
     af2:	cf 53       	subi	r28, 0x3F	; 63
     af4:	df 4f       	sbci	r29, 0xFF	; 255
     af6:	88 81       	ld	r24, Y
     af8:	99 81       	ldd	r25, Y+1	; 0x01
     afa:	c1 5c       	subi	r28, 0xC1	; 193
     afc:	d0 40       	sbci	r29, 0x00	; 0
     afe:	f8 01       	movw	r30, r16
     b00:	91 83       	std	Z+1, r25	; 0x01
     b02:	80 83       	st	Z, r24

00000b04 <.L14>:
     b04:	ce 01       	movw	r24, r28
     b06:	89 5b       	subi	r24, 0xB9	; 185
     b08:	9f 4f       	sbci	r25, 0xFF	; 255
     b0a:	9e 01       	movw	r18, r28
     b0c:	2d 5b       	subi	r18, 0xBD	; 189
     b0e:	3f 4f       	sbci	r19, 0xFF	; 255
     b10:	d9 01       	movw	r26, r18
     b12:	2d 91       	ld	r18, X+
     b14:	3c 91       	ld	r19, X
     b16:	fc 01       	movw	r30, r24
     b18:	31 83       	std	Z+1, r19	; 0x01
     b1a:	20 83       	st	Z, r18

00000b1c <.LM44>:
     b1c:	ce 01       	movw	r24, r28
     b1e:	89 5b       	subi	r24, 0xB9	; 185
     b20:	9f 4f       	sbci	r25, 0xFF	; 255
     b22:	dc 01       	movw	r26, r24
     b24:	8d 91       	ld	r24, X+
     b26:	9c 91       	ld	r25, X

00000b28 <.L1^B4>:
     b28:	01 97       	sbiw	r24, 0x01	; 1
     b2a:	f1 f7       	brne	.-4      	; 0xb28 <.L1^B4>
     b2c:	9e 01       	movw	r18, r28
     b2e:	29 5b       	subi	r18, 0xB9	; 185
     b30:	3f 4f       	sbci	r19, 0xFF	; 255
     b32:	f9 01       	movw	r30, r18
     b34:	91 83       	std	Z+1, r25	; 0x01
     b36:	80 83       	st	Z, r24

00000b38 <.LM45>:
	...

00000b3a <.L19>:
     b3a:	8c e0       	ldi	r24, 0x0C	; 12
     b3c:	8a 83       	std	Y+2, r24	; 0x02

00000b3e <.LM47>:
     b3e:	89 81       	ldd	r24, Y+1	; 0x01
     b40:	28 2f       	mov	r18, r24
     b42:	30 e0       	ldi	r19, 0x00	; 0
     b44:	4d e0       	ldi	r20, 0x0D	; 13
     b46:	42 9f       	mul	r20, r18
     b48:	c0 01       	movw	r24, r0
     b4a:	43 9f       	mul	r20, r19
     b4c:	90 0d       	add	r25, r0
     b4e:	11 24       	eor	r1, r1
     b50:	8c 57       	subi	r24, 0x7C	; 124
     b52:	9f 4f       	sbci	r25, 0xFF	; 255
     b54:	dc 01       	movw	r26, r24
     b56:	8c 91       	ld	r24, X
     b58:	82 fb       	bst	r24, 2
     b5a:	88 27       	eor	r24, r24
     b5c:	80 f9       	bld	r24, 0
     b5e:	88 2f       	mov	r24, r24
     b60:	90 e0       	ldi	r25, 0x00	; 0

00000b62 <.LM48>:
     b62:	88 0f       	add	r24, r24
     b64:	99 1f       	adc	r25, r25

00000b66 <.LM49>:
     b66:	58 2f       	mov	r21, r24

00000b68 <.LM50>:
     b68:	89 81       	ldd	r24, Y+1	; 0x01
     b6a:	28 2f       	mov	r18, r24
     b6c:	30 e0       	ldi	r19, 0x00	; 0
     b6e:	4d e0       	ldi	r20, 0x0D	; 13
     b70:	42 9f       	mul	r20, r18
     b72:	c0 01       	movw	r24, r0
     b74:	43 9f       	mul	r20, r19
     b76:	90 0d       	add	r25, r0
     b78:	11 24       	eor	r1, r1
     b7a:	8c 57       	subi	r24, 0x7C	; 124
     b7c:	9f 4f       	sbci	r25, 0xFF	; 255
     b7e:	fc 01       	movw	r30, r24
     b80:	80 81       	ld	r24, Z
     b82:	86 95       	lsr	r24
     b84:	81 70       	andi	r24, 0x01	; 1

00000b86 <.LM51>:
     b86:	95 2f       	mov	r25, r21
     b88:	98 2b       	or	r25, r24

00000b8a <.LM52>:
     b8a:	8a 81       	ldd	r24, Y+2	; 0x02
     b8c:	89 2b       	or	r24, r25
     b8e:	8a 83       	std	Y+2, r24	; 0x02

00000b90 <.LM53>:
     b90:	6a 81       	ldd	r22, Y+2	; 0x02
     b92:	89 81       	ldd	r24, Y+1	; 0x01
     b94:	0e 94 13 10 	call	0x2026	; 0x2026 <HLCD_voidSendCommand>
     b98:	80 e0       	ldi	r24, 0x00	; 0
     b9a:	90 e0       	ldi	r25, 0x00	; 0
     b9c:	a0 e8       	ldi	r26, 0x80	; 128
     b9e:	bf e3       	ldi	r27, 0x3F	; 63
     ba0:	8d a7       	std	Y+45, r24	; 0x2d
     ba2:	9e a7       	std	Y+46, r25	; 0x2e
     ba4:	af a7       	std	Y+47, r26	; 0x2f
     ba6:	b8 ab       	std	Y+48, r27	; 0x30

00000ba8 <.LM54>:
     ba8:	20 e0       	ldi	r18, 0x00	; 0
     baa:	30 e0       	ldi	r19, 0x00	; 0
     bac:	4a ef       	ldi	r20, 0xFA	; 250
     bae:	54 e4       	ldi	r21, 0x44	; 68
     bb0:	6d a5       	ldd	r22, Y+45	; 0x2d
     bb2:	7e a5       	ldd	r23, Y+46	; 0x2e
     bb4:	8f a5       	ldd	r24, Y+47	; 0x2f
     bb6:	98 a9       	ldd	r25, Y+48	; 0x30
     bb8:	0e 94 6e 1d 	call	0x3adc	; 0x3adc <__mulsf3>
     bbc:	cb 53       	subi	r28, 0x3B	; 59
     bbe:	df 4f       	sbci	r29, 0xFF	; 255
     bc0:	68 83       	st	Y, r22
     bc2:	79 83       	std	Y+1, r23	; 0x01
     bc4:	8a 83       	std	Y+2, r24	; 0x02
     bc6:	9b 83       	std	Y+3, r25	; 0x03
     bc8:	c5 5c       	subi	r28, 0xC5	; 197
     bca:	d0 40       	sbci	r29, 0x00	; 0
     bcc:	cb 53       	subi	r28, 0x3B	; 59
     bce:	df 4f       	sbci	r29, 0xFF	; 255
     bd0:	88 81       	ld	r24, Y
     bd2:	99 81       	ldd	r25, Y+1	; 0x01
     bd4:	aa 81       	ldd	r26, Y+2	; 0x02
     bd6:	bb 81       	ldd	r27, Y+3	; 0x03
     bd8:	c5 5c       	subi	r28, 0xC5	; 197
     bda:	d0 40       	sbci	r29, 0x00	; 0
     bdc:	89 ab       	std	Y+49, r24	; 0x31
     bde:	9a ab       	std	Y+50, r25	; 0x32
     be0:	ab ab       	std	Y+51, r26	; 0x33
     be2:	bc ab       	std	Y+52, r27	; 0x34

00000be4 <.LM55>:
     be4:	20 e0       	ldi	r18, 0x00	; 0
     be6:	30 e0       	ldi	r19, 0x00	; 0
     be8:	40 e8       	ldi	r20, 0x80	; 128
     bea:	5f e3       	ldi	r21, 0x3F	; 63
     bec:	69 a9       	ldd	r22, Y+49	; 0x31
     bee:	7a a9       	ldd	r23, Y+50	; 0x32
     bf0:	8b a9       	ldd	r24, Y+51	; 0x33
     bf2:	9c a9       	ldd	r25, Y+52	; 0x34
     bf4:	0e 94 11 1c 	call	0x3822	; 0x3822 <__cmpsf2>
     bf8:	88 23       	and	r24, r24
     bfa:	2c f4       	brge	.+10     	; 0xc06 <.L100>

00000bfc <.LM56>:
     bfc:	81 e0       	ldi	r24, 0x01	; 1
     bfe:	90 e0       	ldi	r25, 0x00	; 0
     c00:	9e ab       	std	Y+54, r25	; 0x36
     c02:	8d ab       	std	Y+53, r24	; 0x35
     c04:	76 c0       	rjmp	.+236    	; 0xcf2 <.L22>

00000c06 <.L100>:
     c06:	20 e0       	ldi	r18, 0x00	; 0
     c08:	3f ef       	ldi	r19, 0xFF	; 255
     c0a:	4f e7       	ldi	r20, 0x7F	; 127
     c0c:	57 e4       	ldi	r21, 0x47	; 71
     c0e:	69 a9       	ldd	r22, Y+49	; 0x31
     c10:	7a a9       	ldd	r23, Y+50	; 0x32
     c12:	8b a9       	ldd	r24, Y+51	; 0x33
     c14:	9c a9       	ldd	r25, Y+52	; 0x34
     c16:	0e 94 69 1d 	call	0x3ad2	; 0x3ad2 <__gesf2>
     c1a:	88 23       	and	r24, r24
     c1c:	09 f0       	breq	.+2      	; 0xc20 <L0^A>

00000c1e <L0^A>:
     c1e:	0c f4       	brge	.+2      	; 0xc22 <.LM58>

00000c20 <L0^A>:
     c20:	52 c0       	rjmp	.+164    	; 0xcc6 <.L101>

00000c22 <.LM58>:
     c22:	20 e0       	ldi	r18, 0x00	; 0
     c24:	30 e0       	ldi	r19, 0x00	; 0
     c26:	40 e2       	ldi	r20, 0x20	; 32
     c28:	51 e4       	ldi	r21, 0x41	; 65
     c2a:	6d a5       	ldd	r22, Y+45	; 0x2d
     c2c:	7e a5       	ldd	r23, Y+46	; 0x2e
     c2e:	8f a5       	ldd	r24, Y+47	; 0x2f
     c30:	98 a9       	ldd	r25, Y+48	; 0x30
     c32:	0e 94 6e 1d 	call	0x3adc	; 0x3adc <__mulsf3>
     c36:	c7 53       	subi	r28, 0x37	; 55
     c38:	df 4f       	sbci	r29, 0xFF	; 255
     c3a:	68 83       	st	Y, r22
     c3c:	79 83       	std	Y+1, r23	; 0x01
     c3e:	8a 83       	std	Y+2, r24	; 0x02
     c40:	9b 83       	std	Y+3, r25	; 0x03
     c42:	c9 5c       	subi	r28, 0xC9	; 201
     c44:	d0 40       	sbci	r29, 0x00	; 0
     c46:	c7 53       	subi	r28, 0x37	; 55
     c48:	df 4f       	sbci	r29, 0xFF	; 255
     c4a:	88 81       	ld	r24, Y
     c4c:	99 81       	ldd	r25, Y+1	; 0x01
     c4e:	aa 81       	ldd	r26, Y+2	; 0x02
     c50:	bb 81       	ldd	r27, Y+3	; 0x03
     c52:	c9 5c       	subi	r28, 0xC9	; 201
     c54:	d0 40       	sbci	r29, 0x00	; 0
     c56:	c3 57       	subi	r28, 0x73	; 115
     c58:	df 4f       	sbci	r29, 0xFF	; 255
     c5a:	88 83       	st	Y, r24
     c5c:	99 83       	std	Y+1, r25	; 0x01
     c5e:	aa 83       	std	Y+2, r26	; 0x02
     c60:	bb 83       	std	Y+3, r27	; 0x03
     c62:	cd 58       	subi	r28, 0x8D	; 141
     c64:	d0 40       	sbci	r29, 0x00	; 0

00000c66 <.LM59>:
     c66:	c3 57       	subi	r28, 0x73	; 115
     c68:	df 4f       	sbci	r29, 0xFF	; 255
     c6a:	68 81       	ld	r22, Y
     c6c:	79 81       	ldd	r23, Y+1	; 0x01
     c6e:	8a 81       	ldd	r24, Y+2	; 0x02
     c70:	9b 81       	ldd	r25, Y+3	; 0x03
     c72:	cd 58       	subi	r28, 0x8D	; 141
     c74:	d0 40       	sbci	r29, 0x00	; 0
     c76:	0e 94 88 1c 	call	0x3910	; 0x3910 <__fixunssfsi>
     c7a:	c3 53       	subi	r28, 0x33	; 51
     c7c:	df 4f       	sbci	r29, 0xFF	; 255
     c7e:	68 83       	st	Y, r22
     c80:	79 83       	std	Y+1, r23	; 0x01
     c82:	8a 83       	std	Y+2, r24	; 0x02
     c84:	9b 83       	std	Y+3, r25	; 0x03
     c86:	cd 5c       	subi	r28, 0xCD	; 205
     c88:	d0 40       	sbci	r29, 0x00	; 0
     c8a:	c3 53       	subi	r28, 0x33	; 51
     c8c:	df 4f       	sbci	r29, 0xFF	; 255
     c8e:	a8 81       	ld	r26, Y
     c90:	b9 81       	ldd	r27, Y+1	; 0x01
     c92:	cd 5c       	subi	r28, 0xCD	; 205
     c94:	d0 40       	sbci	r29, 0x00	; 0
     c96:	be ab       	std	Y+54, r27	; 0x36
     c98:	ad ab       	std	Y+53, r26	; 0x35

00000c9a <.LM60>:
     c9a:	10 c0       	rjmp	.+32     	; 0xcbc <.L25>

00000c9c <.L26>:
     c9c:	88 ec       	ldi	r24, 0xC8	; 200
     c9e:	90 e0       	ldi	r25, 0x00	; 0
     ca0:	98 af       	std	Y+56, r25	; 0x38
     ca2:	8f ab       	std	Y+55, r24	; 0x37

00000ca4 <.LM61>:
     ca4:	8f a9       	ldd	r24, Y+55	; 0x37
     ca6:	98 ad       	ldd	r25, Y+56	; 0x38

00000ca8 <.L1^B5>:
     ca8:	01 97       	sbiw	r24, 0x01	; 1
     caa:	f1 f7       	brne	.-4      	; 0xca8 <.L1^B5>
     cac:	98 af       	std	Y+56, r25	; 0x38
     cae:	8f ab       	std	Y+55, r24	; 0x37

00000cb0 <.LM62>:
	...

00000cb2 <.LM63>:
     cb2:	8d a9       	ldd	r24, Y+53	; 0x35
     cb4:	9e a9       	ldd	r25, Y+54	; 0x36
     cb6:	01 97       	sbiw	r24, 0x01	; 1
     cb8:	9e ab       	std	Y+54, r25	; 0x36
     cba:	8d ab       	std	Y+53, r24	; 0x35

00000cbc <.L25>:
     cbc:	8d a9       	ldd	r24, Y+53	; 0x35
     cbe:	9e a9       	ldd	r25, Y+54	; 0x36
     cc0:	00 97       	sbiw	r24, 0x00	; 0
     cc2:	61 f7       	brne	.-40     	; 0xc9c <.L26>

00000cc4 <.LM65>:
     cc4:	21 c0       	rjmp	.+66     	; 0xd08 <.L27>

00000cc6 <.L101>:
     cc6:	69 a9       	ldd	r22, Y+49	; 0x31
     cc8:	7a a9       	ldd	r23, Y+50	; 0x32
     cca:	8b a9       	ldd	r24, Y+51	; 0x33
     ccc:	9c a9       	ldd	r25, Y+52	; 0x34
     cce:	0e 94 88 1c 	call	0x3910	; 0x3910 <__fixunssfsi>
     cd2:	cf 52       	subi	r28, 0x2F	; 47
     cd4:	df 4f       	sbci	r29, 0xFF	; 255
     cd6:	68 83       	st	Y, r22
     cd8:	79 83       	std	Y+1, r23	; 0x01
     cda:	8a 83       	std	Y+2, r24	; 0x02
     cdc:	9b 83       	std	Y+3, r25	; 0x03
     cde:	c1 5d       	subi	r28, 0xD1	; 209
     ce0:	d0 40       	sbci	r29, 0x00	; 0
     ce2:	cf 52       	subi	r28, 0x2F	; 47
     ce4:	df 4f       	sbci	r29, 0xFF	; 255
     ce6:	e8 81       	ld	r30, Y
     ce8:	f9 81       	ldd	r31, Y+1	; 0x01
     cea:	c1 5d       	subi	r28, 0xD1	; 209
     cec:	d0 40       	sbci	r29, 0x00	; 0
     cee:	fe ab       	std	Y+54, r31	; 0x36
     cf0:	ed ab       	std	Y+53, r30	; 0x35

00000cf2 <.L22>:
     cf2:	8d a9       	ldd	r24, Y+53	; 0x35
     cf4:	9e a9       	ldd	r25, Y+54	; 0x36
     cf6:	9a af       	std	Y+58, r25	; 0x3a
     cf8:	89 af       	std	Y+57, r24	; 0x39

00000cfa <.LM67>:
     cfa:	89 ad       	ldd	r24, Y+57	; 0x39
     cfc:	9a ad       	ldd	r25, Y+58	; 0x3a

00000cfe <.L1^B6>:
     cfe:	01 97       	sbiw	r24, 0x01	; 1
     d00:	f1 f7       	brne	.-4      	; 0xcfe <.L1^B6>
     d02:	9a af       	std	Y+58, r25	; 0x3a
     d04:	89 af       	std	Y+57, r24	; 0x39

00000d06 <.LM68>:
	...

00000d08 <.L27>:
     d08:	61 e0       	ldi	r22, 0x01	; 1
     d0a:	89 81       	ldd	r24, Y+1	; 0x01
     d0c:	0e 94 13 10 	call	0x2026	; 0x2026 <HLCD_voidSendCommand>
     d10:	80 e0       	ldi	r24, 0x00	; 0
     d12:	90 e0       	ldi	r25, 0x00	; 0
     d14:	a0 e0       	ldi	r26, 0x00	; 0
     d16:	b0 e4       	ldi	r27, 0x40	; 64
     d18:	8f 8f       	std	Y+31, r24	; 0x1f
     d1a:	98 a3       	std	Y+32, r25	; 0x20
     d1c:	a9 a3       	std	Y+33, r26	; 0x21
     d1e:	ba a3       	std	Y+34, r27	; 0x22

00000d20 <.LM70>:
     d20:	20 e0       	ldi	r18, 0x00	; 0
     d22:	30 e0       	ldi	r19, 0x00	; 0
     d24:	4a ef       	ldi	r20, 0xFA	; 250
     d26:	54 e4       	ldi	r21, 0x44	; 68
     d28:	6f 8d       	ldd	r22, Y+31	; 0x1f
     d2a:	78 a1       	ldd	r23, Y+32	; 0x20
     d2c:	89 a1       	ldd	r24, Y+33	; 0x21
     d2e:	9a a1       	ldd	r25, Y+34	; 0x22
     d30:	0e 94 6e 1d 	call	0x3adc	; 0x3adc <__mulsf3>
     d34:	cb 52       	subi	r28, 0x2B	; 43
     d36:	df 4f       	sbci	r29, 0xFF	; 255
     d38:	68 83       	st	Y, r22
     d3a:	79 83       	std	Y+1, r23	; 0x01
     d3c:	8a 83       	std	Y+2, r24	; 0x02
     d3e:	9b 83       	std	Y+3, r25	; 0x03
     d40:	c5 5d       	subi	r28, 0xD5	; 213
     d42:	d0 40       	sbci	r29, 0x00	; 0
     d44:	cb 52       	subi	r28, 0x2B	; 43
     d46:	df 4f       	sbci	r29, 0xFF	; 255
     d48:	88 81       	ld	r24, Y
     d4a:	99 81       	ldd	r25, Y+1	; 0x01
     d4c:	aa 81       	ldd	r26, Y+2	; 0x02
     d4e:	bb 81       	ldd	r27, Y+3	; 0x03
     d50:	c5 5d       	subi	r28, 0xD5	; 213
     d52:	d0 40       	sbci	r29, 0x00	; 0
     d54:	8b a3       	std	Y+35, r24	; 0x23
     d56:	9c a3       	std	Y+36, r25	; 0x24
     d58:	ad a3       	std	Y+37, r26	; 0x25
     d5a:	be a3       	std	Y+38, r27	; 0x26

00000d5c <.LM71>:
     d5c:	20 e0       	ldi	r18, 0x00	; 0
     d5e:	30 e0       	ldi	r19, 0x00	; 0
     d60:	40 e8       	ldi	r20, 0x80	; 128
     d62:	5f e3       	ldi	r21, 0x3F	; 63
     d64:	6b a1       	ldd	r22, Y+35	; 0x23
     d66:	7c a1       	ldd	r23, Y+36	; 0x24
     d68:	8d a1       	ldd	r24, Y+37	; 0x25
     d6a:	9e a1       	ldd	r25, Y+38	; 0x26
     d6c:	0e 94 11 1c 	call	0x3822	; 0x3822 <__cmpsf2>
     d70:	88 23       	and	r24, r24
     d72:	2c f4       	brge	.+10     	; 0xd7e <.L102>

00000d74 <.LM72>:
     d74:	81 e0       	ldi	r24, 0x01	; 1
     d76:	90 e0       	ldi	r25, 0x00	; 0
     d78:	98 a7       	std	Y+40, r25	; 0x28
     d7a:	8f a3       	std	Y+39, r24	; 0x27
     d7c:	76 c0       	rjmp	.+236    	; 0xe6a <.L30>

00000d7e <.L102>:
     d7e:	20 e0       	ldi	r18, 0x00	; 0
     d80:	3f ef       	ldi	r19, 0xFF	; 255
     d82:	4f e7       	ldi	r20, 0x7F	; 127
     d84:	57 e4       	ldi	r21, 0x47	; 71
     d86:	6b a1       	ldd	r22, Y+35	; 0x23
     d88:	7c a1       	ldd	r23, Y+36	; 0x24
     d8a:	8d a1       	ldd	r24, Y+37	; 0x25
     d8c:	9e a1       	ldd	r25, Y+38	; 0x26
     d8e:	0e 94 69 1d 	call	0x3ad2	; 0x3ad2 <__gesf2>
     d92:	88 23       	and	r24, r24
     d94:	09 f0       	breq	.+2      	; 0xd98 <L0^A>

00000d96 <L0^A>:
     d96:	0c f4       	brge	.+2      	; 0xd9a <.LM74>

00000d98 <L0^A>:
     d98:	52 c0       	rjmp	.+164    	; 0xe3e <.L103>

00000d9a <.LM74>:
     d9a:	20 e0       	ldi	r18, 0x00	; 0
     d9c:	30 e0       	ldi	r19, 0x00	; 0
     d9e:	40 e2       	ldi	r20, 0x20	; 32
     da0:	51 e4       	ldi	r21, 0x41	; 65
     da2:	6f 8d       	ldd	r22, Y+31	; 0x1f
     da4:	78 a1       	ldd	r23, Y+32	; 0x20
     da6:	89 a1       	ldd	r24, Y+33	; 0x21
     da8:	9a a1       	ldd	r25, Y+34	; 0x22
     daa:	0e 94 6e 1d 	call	0x3adc	; 0x3adc <__mulsf3>
     dae:	c7 52       	subi	r28, 0x27	; 39
     db0:	df 4f       	sbci	r29, 0xFF	; 255
     db2:	68 83       	st	Y, r22
     db4:	79 83       	std	Y+1, r23	; 0x01
     db6:	8a 83       	std	Y+2, r24	; 0x02
     db8:	9b 83       	std	Y+3, r25	; 0x03
     dba:	c9 5d       	subi	r28, 0xD9	; 217
     dbc:	d0 40       	sbci	r29, 0x00	; 0
     dbe:	c7 52       	subi	r28, 0x27	; 39
     dc0:	df 4f       	sbci	r29, 0xFF	; 255
     dc2:	88 81       	ld	r24, Y
     dc4:	99 81       	ldd	r25, Y+1	; 0x01
     dc6:	aa 81       	ldd	r26, Y+2	; 0x02
     dc8:	bb 81       	ldd	r27, Y+3	; 0x03
     dca:	c9 5d       	subi	r28, 0xD9	; 217
     dcc:	d0 40       	sbci	r29, 0x00	; 0
     dce:	c7 57       	subi	r28, 0x77	; 119
     dd0:	df 4f       	sbci	r29, 0xFF	; 255
     dd2:	88 83       	st	Y, r24
     dd4:	99 83       	std	Y+1, r25	; 0x01
     dd6:	aa 83       	std	Y+2, r26	; 0x02
     dd8:	bb 83       	std	Y+3, r27	; 0x03
     dda:	c9 58       	subi	r28, 0x89	; 137
     ddc:	d0 40       	sbci	r29, 0x00	; 0

00000dde <.LM75>:
     dde:	c7 57       	subi	r28, 0x77	; 119
     de0:	df 4f       	sbci	r29, 0xFF	; 255
     de2:	68 81       	ld	r22, Y
     de4:	79 81       	ldd	r23, Y+1	; 0x01
     de6:	8a 81       	ldd	r24, Y+2	; 0x02
     de8:	9b 81       	ldd	r25, Y+3	; 0x03
     dea:	c9 58       	subi	r28, 0x89	; 137
     dec:	d0 40       	sbci	r29, 0x00	; 0
     dee:	0e 94 88 1c 	call	0x3910	; 0x3910 <__fixunssfsi>
     df2:	c3 52       	subi	r28, 0x23	; 35
     df4:	df 4f       	sbci	r29, 0xFF	; 255
     df6:	68 83       	st	Y, r22
     df8:	79 83       	std	Y+1, r23	; 0x01
     dfa:	8a 83       	std	Y+2, r24	; 0x02
     dfc:	9b 83       	std	Y+3, r25	; 0x03
     dfe:	cd 5d       	subi	r28, 0xDD	; 221
     e00:	d0 40       	sbci	r29, 0x00	; 0
     e02:	c3 52       	subi	r28, 0x23	; 35
     e04:	df 4f       	sbci	r29, 0xFF	; 255
     e06:	a8 81       	ld	r26, Y
     e08:	b9 81       	ldd	r27, Y+1	; 0x01
     e0a:	cd 5d       	subi	r28, 0xDD	; 221
     e0c:	d0 40       	sbci	r29, 0x00	; 0
     e0e:	b8 a7       	std	Y+40, r27	; 0x28
     e10:	af a3       	std	Y+39, r26	; 0x27

00000e12 <.LM76>:
     e12:	10 c0       	rjmp	.+32     	; 0xe34 <.L33>

00000e14 <.L34>:
     e14:	88 ec       	ldi	r24, 0xC8	; 200
     e16:	90 e0       	ldi	r25, 0x00	; 0
     e18:	9a a7       	std	Y+42, r25	; 0x2a
     e1a:	89 a7       	std	Y+41, r24	; 0x29

00000e1c <.LM77>:
     e1c:	89 a5       	ldd	r24, Y+41	; 0x29
     e1e:	9a a5       	ldd	r25, Y+42	; 0x2a

00000e20 <.L1^B7>:
     e20:	01 97       	sbiw	r24, 0x01	; 1
     e22:	f1 f7       	brne	.-4      	; 0xe20 <.L1^B7>
     e24:	9a a7       	std	Y+42, r25	; 0x2a
     e26:	89 a7       	std	Y+41, r24	; 0x29

00000e28 <.LM78>:
	...

00000e2a <.LM79>:
     e2a:	8f a1       	ldd	r24, Y+39	; 0x27
     e2c:	98 a5       	ldd	r25, Y+40	; 0x28
     e2e:	01 97       	sbiw	r24, 0x01	; 1
     e30:	98 a7       	std	Y+40, r25	; 0x28
     e32:	8f a3       	std	Y+39, r24	; 0x27

00000e34 <.L33>:
     e34:	8f a1       	ldd	r24, Y+39	; 0x27
     e36:	98 a5       	ldd	r25, Y+40	; 0x28
     e38:	00 97       	sbiw	r24, 0x00	; 0
     e3a:	61 f7       	brne	.-40     	; 0xe14 <.L34>

00000e3c <.LM81>:
     e3c:	21 c0       	rjmp	.+66     	; 0xe80 <.L35>

00000e3e <.L103>:
     e3e:	6b a1       	ldd	r22, Y+35	; 0x23
     e40:	7c a1       	ldd	r23, Y+36	; 0x24
     e42:	8d a1       	ldd	r24, Y+37	; 0x25
     e44:	9e a1       	ldd	r25, Y+38	; 0x26
     e46:	0e 94 88 1c 	call	0x3910	; 0x3910 <__fixunssfsi>
     e4a:	cf 51       	subi	r28, 0x1F	; 31
     e4c:	df 4f       	sbci	r29, 0xFF	; 255
     e4e:	68 83       	st	Y, r22
     e50:	79 83       	std	Y+1, r23	; 0x01
     e52:	8a 83       	std	Y+2, r24	; 0x02
     e54:	9b 83       	std	Y+3, r25	; 0x03
     e56:	c1 5e       	subi	r28, 0xE1	; 225
     e58:	d0 40       	sbci	r29, 0x00	; 0
     e5a:	cf 51       	subi	r28, 0x1F	; 31
     e5c:	df 4f       	sbci	r29, 0xFF	; 255
     e5e:	e8 81       	ld	r30, Y
     e60:	f9 81       	ldd	r31, Y+1	; 0x01
     e62:	c1 5e       	subi	r28, 0xE1	; 225
     e64:	d0 40       	sbci	r29, 0x00	; 0
     e66:	f8 a7       	std	Y+40, r31	; 0x28
     e68:	ef a3       	std	Y+39, r30	; 0x27

00000e6a <.L30>:
     e6a:	8f a1       	ldd	r24, Y+39	; 0x27
     e6c:	98 a5       	ldd	r25, Y+40	; 0x28
     e6e:	9c a7       	std	Y+44, r25	; 0x2c
     e70:	8b a7       	std	Y+43, r24	; 0x2b

00000e72 <.LM83>:
     e72:	8b a5       	ldd	r24, Y+43	; 0x2b
     e74:	9c a5       	ldd	r25, Y+44	; 0x2c

00000e76 <.L1^B8>:
     e76:	01 97       	sbiw	r24, 0x01	; 1
     e78:	f1 f7       	brne	.-4      	; 0xe76 <.L1^B8>
     e7a:	9c a7       	std	Y+44, r25	; 0x2c
     e7c:	8b a7       	std	Y+43, r24	; 0x2b

00000e7e <.LM84>:
	...

00000e80 <.L35>:
     e80:	84 e0       	ldi	r24, 0x04	; 4
     e82:	8a 83       	std	Y+2, r24	; 0x02

00000e84 <.LM86>:
     e84:	89 81       	ldd	r24, Y+1	; 0x01
     e86:	28 2f       	mov	r18, r24
     e88:	30 e0       	ldi	r19, 0x00	; 0
     e8a:	4d e0       	ldi	r20, 0x0D	; 13
     e8c:	42 9f       	mul	r20, r18
     e8e:	c0 01       	movw	r24, r0
     e90:	43 9f       	mul	r20, r19
     e92:	90 0d       	add	r25, r0
     e94:	11 24       	eor	r1, r1
     e96:	8c 57       	subi	r24, 0x7C	; 124
     e98:	9f 4f       	sbci	r25, 0xFF	; 255
     e9a:	dc 01       	movw	r26, r24
     e9c:	8c 91       	ld	r24, X
     e9e:	83 fb       	bst	r24, 3
     ea0:	88 27       	eor	r24, r24
     ea2:	80 f9       	bld	r24, 0
     ea4:	88 2f       	mov	r24, r24
     ea6:	90 e0       	ldi	r25, 0x00	; 0

00000ea8 <.LM87>:
     ea8:	88 0f       	add	r24, r24
     eaa:	99 1f       	adc	r25, r25

00000eac <.LM88>:
     eac:	58 2f       	mov	r21, r24

00000eae <.LM89>:
     eae:	89 81       	ldd	r24, Y+1	; 0x01
     eb0:	28 2f       	mov	r18, r24
     eb2:	30 e0       	ldi	r19, 0x00	; 0
     eb4:	4d e0       	ldi	r20, 0x0D	; 13
     eb6:	42 9f       	mul	r20, r18
     eb8:	c0 01       	movw	r24, r0
     eba:	43 9f       	mul	r20, r19
     ebc:	90 0d       	add	r25, r0
     ebe:	11 24       	eor	r1, r1
     ec0:	8c 57       	subi	r24, 0x7C	; 124
     ec2:	9f 4f       	sbci	r25, 0xFF	; 255
     ec4:	fc 01       	movw	r30, r24
     ec6:	80 81       	ld	r24, Z
     ec8:	82 95       	swap	r24
     eca:	81 70       	andi	r24, 0x01	; 1

00000ecc <.LM90>:
     ecc:	95 2f       	mov	r25, r21
     ece:	98 2b       	or	r25, r24

00000ed0 <.LM91>:
     ed0:	8a 81       	ldd	r24, Y+2	; 0x02
     ed2:	89 2b       	or	r24, r25
     ed4:	8a 83       	std	Y+2, r24	; 0x02

00000ed6 <.LM92>:
     ed6:	6a 81       	ldd	r22, Y+2	; 0x02
     ed8:	89 81       	ldd	r24, Y+1	; 0x01
     eda:	0e 94 13 10 	call	0x2026	; 0x2026 <HLCD_voidSendCommand>
     ede:	80 e0       	ldi	r24, 0x00	; 0
     ee0:	90 e0       	ldi	r25, 0x00	; 0
     ee2:	a0 e8       	ldi	r26, 0x80	; 128
     ee4:	bf e3       	ldi	r27, 0x3F	; 63
     ee6:	89 8b       	std	Y+17, r24	; 0x11
     ee8:	9a 8b       	std	Y+18, r25	; 0x12
     eea:	ab 8b       	std	Y+19, r26	; 0x13
     eec:	bc 8b       	std	Y+20, r27	; 0x14

00000eee <.LM93>:
     eee:	20 e0       	ldi	r18, 0x00	; 0
     ef0:	30 e0       	ldi	r19, 0x00	; 0
     ef2:	4a ef       	ldi	r20, 0xFA	; 250
     ef4:	54 e4       	ldi	r21, 0x44	; 68
     ef6:	69 89       	ldd	r22, Y+17	; 0x11
     ef8:	7a 89       	ldd	r23, Y+18	; 0x12
     efa:	8b 89       	ldd	r24, Y+19	; 0x13
     efc:	9c 89       	ldd	r25, Y+20	; 0x14
     efe:	0e 94 6e 1d 	call	0x3adc	; 0x3adc <__mulsf3>
     f02:	cb 51       	subi	r28, 0x1B	; 27
     f04:	df 4f       	sbci	r29, 0xFF	; 255
     f06:	68 83       	st	Y, r22
     f08:	79 83       	std	Y+1, r23	; 0x01
     f0a:	8a 83       	std	Y+2, r24	; 0x02
     f0c:	9b 83       	std	Y+3, r25	; 0x03
     f0e:	c5 5e       	subi	r28, 0xE5	; 229
     f10:	d0 40       	sbci	r29, 0x00	; 0
     f12:	cb 51       	subi	r28, 0x1B	; 27
     f14:	df 4f       	sbci	r29, 0xFF	; 255
     f16:	88 81       	ld	r24, Y
     f18:	99 81       	ldd	r25, Y+1	; 0x01
     f1a:	aa 81       	ldd	r26, Y+2	; 0x02
     f1c:	bb 81       	ldd	r27, Y+3	; 0x03
     f1e:	c5 5e       	subi	r28, 0xE5	; 229
     f20:	d0 40       	sbci	r29, 0x00	; 0
     f22:	8d 8b       	std	Y+21, r24	; 0x15
     f24:	9e 8b       	std	Y+22, r25	; 0x16
     f26:	af 8b       	std	Y+23, r26	; 0x17
     f28:	b8 8f       	std	Y+24, r27	; 0x18

00000f2a <.LM94>:
     f2a:	20 e0       	ldi	r18, 0x00	; 0
     f2c:	30 e0       	ldi	r19, 0x00	; 0
     f2e:	40 e8       	ldi	r20, 0x80	; 128
     f30:	5f e3       	ldi	r21, 0x3F	; 63
     f32:	6d 89       	ldd	r22, Y+21	; 0x15
     f34:	7e 89       	ldd	r23, Y+22	; 0x16
     f36:	8f 89       	ldd	r24, Y+23	; 0x17
     f38:	98 8d       	ldd	r25, Y+24	; 0x18
     f3a:	0e 94 11 1c 	call	0x3822	; 0x3822 <__cmpsf2>
     f3e:	88 23       	and	r24, r24
     f40:	2c f4       	brge	.+10     	; 0xf4c <.L104>

00000f42 <.LM95>:
     f42:	81 e0       	ldi	r24, 0x01	; 1
     f44:	90 e0       	ldi	r25, 0x00	; 0
     f46:	9a 8f       	std	Y+26, r25	; 0x1a
     f48:	89 8f       	std	Y+25, r24	; 0x19
     f4a:	76 c0       	rjmp	.+236    	; 0x1038 <.L38>

00000f4c <.L104>:
     f4c:	20 e0       	ldi	r18, 0x00	; 0
     f4e:	3f ef       	ldi	r19, 0xFF	; 255
     f50:	4f e7       	ldi	r20, 0x7F	; 127
     f52:	57 e4       	ldi	r21, 0x47	; 71
     f54:	6d 89       	ldd	r22, Y+21	; 0x15
     f56:	7e 89       	ldd	r23, Y+22	; 0x16
     f58:	8f 89       	ldd	r24, Y+23	; 0x17
     f5a:	98 8d       	ldd	r25, Y+24	; 0x18
     f5c:	0e 94 69 1d 	call	0x3ad2	; 0x3ad2 <__gesf2>
     f60:	88 23       	and	r24, r24
     f62:	09 f0       	breq	.+2      	; 0xf66 <L0^A>

00000f64 <L0^A>:
     f64:	0c f4       	brge	.+2      	; 0xf68 <.LM97>

00000f66 <L0^A>:
     f66:	52 c0       	rjmp	.+164    	; 0x100c <.L105>

00000f68 <.LM97>:
     f68:	20 e0       	ldi	r18, 0x00	; 0
     f6a:	30 e0       	ldi	r19, 0x00	; 0
     f6c:	40 e2       	ldi	r20, 0x20	; 32
     f6e:	51 e4       	ldi	r21, 0x41	; 65
     f70:	69 89       	ldd	r22, Y+17	; 0x11
     f72:	7a 89       	ldd	r23, Y+18	; 0x12
     f74:	8b 89       	ldd	r24, Y+19	; 0x13
     f76:	9c 89       	ldd	r25, Y+20	; 0x14
     f78:	0e 94 6e 1d 	call	0x3adc	; 0x3adc <__mulsf3>
     f7c:	c7 51       	subi	r28, 0x17	; 23
     f7e:	df 4f       	sbci	r29, 0xFF	; 255
     f80:	68 83       	st	Y, r22
     f82:	79 83       	std	Y+1, r23	; 0x01
     f84:	8a 83       	std	Y+2, r24	; 0x02
     f86:	9b 83       	std	Y+3, r25	; 0x03
     f88:	c9 5e       	subi	r28, 0xE9	; 233
     f8a:	d0 40       	sbci	r29, 0x00	; 0
     f8c:	c7 51       	subi	r28, 0x17	; 23
     f8e:	df 4f       	sbci	r29, 0xFF	; 255
     f90:	88 81       	ld	r24, Y
     f92:	99 81       	ldd	r25, Y+1	; 0x01
     f94:	aa 81       	ldd	r26, Y+2	; 0x02
     f96:	bb 81       	ldd	r27, Y+3	; 0x03
     f98:	c9 5e       	subi	r28, 0xE9	; 233
     f9a:	d0 40       	sbci	r29, 0x00	; 0
     f9c:	cb 57       	subi	r28, 0x7B	; 123
     f9e:	df 4f       	sbci	r29, 0xFF	; 255
     fa0:	88 83       	st	Y, r24
     fa2:	99 83       	std	Y+1, r25	; 0x01
     fa4:	aa 83       	std	Y+2, r26	; 0x02
     fa6:	bb 83       	std	Y+3, r27	; 0x03
     fa8:	c5 58       	subi	r28, 0x85	; 133
     faa:	d0 40       	sbci	r29, 0x00	; 0

00000fac <.LM98>:
     fac:	cb 57       	subi	r28, 0x7B	; 123
     fae:	df 4f       	sbci	r29, 0xFF	; 255
     fb0:	68 81       	ld	r22, Y
     fb2:	79 81       	ldd	r23, Y+1	; 0x01
     fb4:	8a 81       	ldd	r24, Y+2	; 0x02
     fb6:	9b 81       	ldd	r25, Y+3	; 0x03
     fb8:	c5 58       	subi	r28, 0x85	; 133
     fba:	d0 40       	sbci	r29, 0x00	; 0
     fbc:	0e 94 88 1c 	call	0x3910	; 0x3910 <__fixunssfsi>
     fc0:	c3 51       	subi	r28, 0x13	; 19
     fc2:	df 4f       	sbci	r29, 0xFF	; 255
     fc4:	68 83       	st	Y, r22
     fc6:	79 83       	std	Y+1, r23	; 0x01
     fc8:	8a 83       	std	Y+2, r24	; 0x02
     fca:	9b 83       	std	Y+3, r25	; 0x03
     fcc:	cd 5e       	subi	r28, 0xED	; 237
     fce:	d0 40       	sbci	r29, 0x00	; 0
     fd0:	c3 51       	subi	r28, 0x13	; 19
     fd2:	df 4f       	sbci	r29, 0xFF	; 255
     fd4:	a8 81       	ld	r26, Y
     fd6:	b9 81       	ldd	r27, Y+1	; 0x01
     fd8:	cd 5e       	subi	r28, 0xED	; 237
     fda:	d0 40       	sbci	r29, 0x00	; 0
     fdc:	ba 8f       	std	Y+26, r27	; 0x1a
     fde:	a9 8f       	std	Y+25, r26	; 0x19

00000fe0 <.LM99>:
     fe0:	10 c0       	rjmp	.+32     	; 0x1002 <.L41>

00000fe2 <.L42>:
     fe2:	88 ec       	ldi	r24, 0xC8	; 200
     fe4:	90 e0       	ldi	r25, 0x00	; 0
     fe6:	9c 8f       	std	Y+28, r25	; 0x1c
     fe8:	8b 8f       	std	Y+27, r24	; 0x1b

00000fea <.LM100>:
     fea:	8b 8d       	ldd	r24, Y+27	; 0x1b
     fec:	9c 8d       	ldd	r25, Y+28	; 0x1c

00000fee <.L1^B9>:
     fee:	01 97       	sbiw	r24, 0x01	; 1
     ff0:	f1 f7       	brne	.-4      	; 0xfee <.L1^B9>
     ff2:	9c 8f       	std	Y+28, r25	; 0x1c
     ff4:	8b 8f       	std	Y+27, r24	; 0x1b

00000ff6 <.LM101>:
	...

00000ff8 <.LM102>:
     ff8:	89 8d       	ldd	r24, Y+25	; 0x19
     ffa:	9a 8d       	ldd	r25, Y+26	; 0x1a
     ffc:	01 97       	sbiw	r24, 0x01	; 1
     ffe:	9a 8f       	std	Y+26, r25	; 0x1a
    1000:	89 8f       	std	Y+25, r24	; 0x19

00001002 <.L41>:
    1002:	89 8d       	ldd	r24, Y+25	; 0x19
    1004:	9a 8d       	ldd	r25, Y+26	; 0x1a
    1006:	00 97       	sbiw	r24, 0x00	; 0
    1008:	61 f7       	brne	.-40     	; 0xfe2 <.L42>

0000100a <.LM104>:
    100a:	ee c4       	rjmp	.+2524   	; 0x19e8 <.L44>

0000100c <.L105>:
    100c:	6d 89       	ldd	r22, Y+21	; 0x15
    100e:	7e 89       	ldd	r23, Y+22	; 0x16
    1010:	8f 89       	ldd	r24, Y+23	; 0x17
    1012:	98 8d       	ldd	r25, Y+24	; 0x18
    1014:	0e 94 88 1c 	call	0x3910	; 0x3910 <__fixunssfsi>
    1018:	cf 50       	subi	r28, 0x0F	; 15
    101a:	df 4f       	sbci	r29, 0xFF	; 255
    101c:	68 83       	st	Y, r22
    101e:	79 83       	std	Y+1, r23	; 0x01
    1020:	8a 83       	std	Y+2, r24	; 0x02
    1022:	9b 83       	std	Y+3, r25	; 0x03
    1024:	c1 5f       	subi	r28, 0xF1	; 241
    1026:	d0 40       	sbci	r29, 0x00	; 0
    1028:	cf 50       	subi	r28, 0x0F	; 15
    102a:	df 4f       	sbci	r29, 0xFF	; 255
    102c:	e8 81       	ld	r30, Y
    102e:	f9 81       	ldd	r31, Y+1	; 0x01
    1030:	c1 5f       	subi	r28, 0xF1	; 241
    1032:	d0 40       	sbci	r29, 0x00	; 0
    1034:	fa 8f       	std	Y+26, r31	; 0x1a
    1036:	e9 8f       	std	Y+25, r30	; 0x19

00001038 <.L38>:
    1038:	89 8d       	ldd	r24, Y+25	; 0x19
    103a:	9a 8d       	ldd	r25, Y+26	; 0x1a
    103c:	9e 8f       	std	Y+30, r25	; 0x1e
    103e:	8d 8f       	std	Y+29, r24	; 0x1d

00001040 <.LM106>:
    1040:	8d 8d       	ldd	r24, Y+29	; 0x1d
    1042:	9e 8d       	ldd	r25, Y+30	; 0x1e

00001044 <.L1^B10>:
    1044:	01 97       	sbiw	r24, 0x01	; 1
    1046:	f1 f7       	brne	.-4      	; 0x1044 <.L1^B10>
    1048:	9e 8f       	std	Y+30, r25	; 0x1e
    104a:	8d 8f       	std	Y+29, r24	; 0x1d

0000104c <.LM107>:
    104c:	cd c4       	rjmp	.+2458   	; 0x19e8 <.L44>

0000104e <.L11>:
    104e:	82 e0       	ldi	r24, 0x02	; 2
    1050:	8a 83       	std	Y+2, r24	; 0x02

00001052 <.LM109>:
    1052:	6a 81       	ldd	r22, Y+2	; 0x02
    1054:	89 81       	ldd	r24, Y+1	; 0x01
    1056:	0e 94 13 10 	call	0x2026	; 0x2026 <HLCD_voidSendCommand>

0000105a <.LM110>:
    105a:	80 e2       	ldi	r24, 0x20	; 32
    105c:	8a 83       	std	Y+2, r24	; 0x02

0000105e <.LM111>:
    105e:	89 81       	ldd	r24, Y+1	; 0x01
    1060:	28 2f       	mov	r18, r24
    1062:	30 e0       	ldi	r19, 0x00	; 0
    1064:	4d e0       	ldi	r20, 0x0D	; 13
    1066:	42 9f       	mul	r20, r18
    1068:	c0 01       	movw	r24, r0
    106a:	43 9f       	mul	r20, r19
    106c:	90 0d       	add	r25, r0
    106e:	11 24       	eor	r1, r1
    1070:	8c 57       	subi	r24, 0x7C	; 124
    1072:	9f 4f       	sbci	r25, 0xFF	; 255
    1074:	dc 01       	movw	r26, r24
    1076:	8c 91       	ld	r24, X
    1078:	81 70       	andi	r24, 0x01	; 1
    107a:	88 2f       	mov	r24, r24
    107c:	90 e0       	ldi	r25, 0x00	; 0

0000107e <.LM112>:
    107e:	88 0f       	add	r24, r24
    1080:	99 1f       	adc	r25, r25
    1082:	88 0f       	add	r24, r24
    1084:	99 1f       	adc	r25, r25
    1086:	88 0f       	add	r24, r24
    1088:	99 1f       	adc	r25, r25

0000108a <.LM113>:
    108a:	58 2f       	mov	r21, r24

0000108c <.LM114>:
    108c:	89 81       	ldd	r24, Y+1	; 0x01
    108e:	28 2f       	mov	r18, r24
    1090:	30 e0       	ldi	r19, 0x00	; 0
    1092:	4d e0       	ldi	r20, 0x0D	; 13
    1094:	42 9f       	mul	r20, r18
    1096:	c0 01       	movw	r24, r0
    1098:	43 9f       	mul	r20, r19
    109a:	90 0d       	add	r25, r0
    109c:	11 24       	eor	r1, r1
    109e:	8c 57       	subi	r24, 0x7C	; 124
    10a0:	9f 4f       	sbci	r25, 0xFF	; 255
    10a2:	fc 01       	movw	r30, r24
    10a4:	80 81       	ld	r24, Z
    10a6:	85 fb       	bst	r24, 5
    10a8:	88 27       	eor	r24, r24
    10aa:	80 f9       	bld	r24, 0
    10ac:	88 2f       	mov	r24, r24
    10ae:	90 e0       	ldi	r25, 0x00	; 0

000010b0 <.LM115>:
    10b0:	88 0f       	add	r24, r24
    10b2:	99 1f       	adc	r25, r25
    10b4:	88 0f       	add	r24, r24
    10b6:	99 1f       	adc	r25, r25

000010b8 <.LM116>:
    10b8:	95 2f       	mov	r25, r21
    10ba:	98 2b       	or	r25, r24

000010bc <.LM117>:
    10bc:	8a 81       	ldd	r24, Y+2	; 0x02
    10be:	89 2b       	or	r24, r25
    10c0:	8a 83       	std	Y+2, r24	; 0x02

000010c2 <.LM118>:
    10c2:	6a 81       	ldd	r22, Y+2	; 0x02
    10c4:	89 81       	ldd	r24, Y+1	; 0x01
    10c6:	0e 94 13 10 	call	0x2026	; 0x2026 <HLCD_voidSendCommand>
    10ca:	9e 01       	movw	r18, r28
    10cc:	2d 58       	subi	r18, 0x8D	; 141
    10ce:	3f 4f       	sbci	r19, 0xFF	; 255
    10d0:	80 e0       	ldi	r24, 0x00	; 0
    10d2:	90 e0       	ldi	r25, 0x00	; 0
    10d4:	a0 e8       	ldi	r26, 0x80	; 128
    10d6:	bf e3       	ldi	r27, 0x3F	; 63
    10d8:	f9 01       	movw	r30, r18
    10da:	80 83       	st	Z, r24
    10dc:	91 83       	std	Z+1, r25	; 0x01
    10de:	a2 83       	std	Z+2, r26	; 0x02
    10e0:	b3 83       	std	Z+3, r27	; 0x03

000010e2 <.LM119>:
    10e2:	8e 01       	movw	r16, r28
    10e4:	09 58       	subi	r16, 0x89	; 137
    10e6:	1f 4f       	sbci	r17, 0xFF	; 255
    10e8:	ce 01       	movw	r24, r28
    10ea:	8d 58       	subi	r24, 0x8D	; 141
    10ec:	9f 4f       	sbci	r25, 0xFF	; 255
    10ee:	20 e0       	ldi	r18, 0x00	; 0
    10f0:	30 e0       	ldi	r19, 0x00	; 0
    10f2:	4a ef       	ldi	r20, 0xFA	; 250
    10f4:	54 e4       	ldi	r21, 0x44	; 68
    10f6:	dc 01       	movw	r26, r24
    10f8:	6d 91       	ld	r22, X+
    10fa:	7d 91       	ld	r23, X+
    10fc:	8d 91       	ld	r24, X+
    10fe:	9c 91       	ld	r25, X
    1100:	0e 94 6e 1d 	call	0x3adc	; 0x3adc <__mulsf3>
    1104:	cb 50       	subi	r28, 0x0B	; 11
    1106:	df 4f       	sbci	r29, 0xFF	; 255
    1108:	68 83       	st	Y, r22
    110a:	79 83       	std	Y+1, r23	; 0x01
    110c:	8a 83       	std	Y+2, r24	; 0x02
    110e:	9b 83       	std	Y+3, r25	; 0x03
    1110:	c5 5f       	subi	r28, 0xF5	; 245
    1112:	d0 40       	sbci	r29, 0x00	; 0
    1114:	cb 50       	subi	r28, 0x0B	; 11
    1116:	df 4f       	sbci	r29, 0xFF	; 255
    1118:	88 81       	ld	r24, Y
    111a:	99 81       	ldd	r25, Y+1	; 0x01
    111c:	aa 81       	ldd	r26, Y+2	; 0x02
    111e:	bb 81       	ldd	r27, Y+3	; 0x03
    1120:	c5 5f       	subi	r28, 0xF5	; 245
    1122:	d0 40       	sbci	r29, 0x00	; 0
    1124:	f8 01       	movw	r30, r16
    1126:	80 83       	st	Z, r24
    1128:	91 83       	std	Z+1, r25	; 0x01
    112a:	a2 83       	std	Z+2, r26	; 0x02
    112c:	b3 83       	std	Z+3, r27	; 0x03

0000112e <.LM120>:
    112e:	ce 01       	movw	r24, r28
    1130:	89 58       	subi	r24, 0x89	; 137
    1132:	9f 4f       	sbci	r25, 0xFF	; 255
    1134:	20 e0       	ldi	r18, 0x00	; 0
    1136:	30 e0       	ldi	r19, 0x00	; 0
    1138:	40 e8       	ldi	r20, 0x80	; 128
    113a:	5f e3       	ldi	r21, 0x3F	; 63
    113c:	dc 01       	movw	r26, r24
    113e:	6d 91       	ld	r22, X+
    1140:	7d 91       	ld	r23, X+
    1142:	8d 91       	ld	r24, X+
    1144:	9c 91       	ld	r25, X
    1146:	0e 94 11 1c 	call	0x3822	; 0x3822 <__cmpsf2>
    114a:	88 23       	and	r24, r24
    114c:	4c f4       	brge	.+18     	; 0x1160 <.L106>

0000114e <.LM121>:
    114e:	ce 01       	movw	r24, r28
    1150:	85 58       	subi	r24, 0x85	; 133
    1152:	9f 4f       	sbci	r25, 0xFF	; 255
    1154:	21 e0       	ldi	r18, 0x01	; 1
    1156:	30 e0       	ldi	r19, 0x00	; 0
    1158:	fc 01       	movw	r30, r24
    115a:	31 83       	std	Z+1, r19	; 0x01
    115c:	20 83       	st	Z, r18
    115e:	a5 c0       	rjmp	.+330    	; 0x12aa <.L47>

00001160 <.L106>:
    1160:	ce 01       	movw	r24, r28
    1162:	89 58       	subi	r24, 0x89	; 137
    1164:	9f 4f       	sbci	r25, 0xFF	; 255
    1166:	20 e0       	ldi	r18, 0x00	; 0
    1168:	3f ef       	ldi	r19, 0xFF	; 255
    116a:	4f e7       	ldi	r20, 0x7F	; 127
    116c:	57 e4       	ldi	r21, 0x47	; 71
    116e:	dc 01       	movw	r26, r24
    1170:	6d 91       	ld	r22, X+
    1172:	7d 91       	ld	r23, X+
    1174:	8d 91       	ld	r24, X+
    1176:	9c 91       	ld	r25, X
    1178:	0e 94 69 1d 	call	0x3ad2	; 0x3ad2 <__gesf2>
    117c:	88 23       	and	r24, r24
    117e:	09 f0       	breq	.+2      	; 0x1182 <L0^A>

00001180 <L0^A>:
    1180:	0c f4       	brge	.+2      	; 0x1184 <.LM123>

00001182 <L0^A>:
    1182:	75 c0       	rjmp	.+234    	; 0x126e <.L107>

00001184 <.LM123>:
    1184:	ce 01       	movw	r24, r28
    1186:	8d 58       	subi	r24, 0x8D	; 141
    1188:	9f 4f       	sbci	r25, 0xFF	; 255
    118a:	20 e0       	ldi	r18, 0x00	; 0
    118c:	30 e0       	ldi	r19, 0x00	; 0
    118e:	40 e2       	ldi	r20, 0x20	; 32
    1190:	51 e4       	ldi	r21, 0x41	; 65
    1192:	fc 01       	movw	r30, r24
    1194:	60 81       	ld	r22, Z
    1196:	71 81       	ldd	r23, Z+1	; 0x01
    1198:	82 81       	ldd	r24, Z+2	; 0x02
    119a:	93 81       	ldd	r25, Z+3	; 0x03
    119c:	0e 94 6e 1d 	call	0x3adc	; 0x3adc <__mulsf3>
    11a0:	c7 50       	subi	r28, 0x07	; 7
    11a2:	df 4f       	sbci	r29, 0xFF	; 255
    11a4:	68 83       	st	Y, r22
    11a6:	79 83       	std	Y+1, r23	; 0x01
    11a8:	8a 83       	std	Y+2, r24	; 0x02
    11aa:	9b 83       	std	Y+3, r25	; 0x03
    11ac:	c9 5f       	subi	r28, 0xF9	; 249
    11ae:	d0 40       	sbci	r29, 0x00	; 0
    11b0:	c7 50       	subi	r28, 0x07	; 7
    11b2:	df 4f       	sbci	r29, 0xFF	; 255
    11b4:	88 81       	ld	r24, Y
    11b6:	99 81       	ldd	r25, Y+1	; 0x01
    11b8:	aa 81       	ldd	r26, Y+2	; 0x02
    11ba:	bb 81       	ldd	r27, Y+3	; 0x03
    11bc:	c9 5f       	subi	r28, 0xF9	; 249
    11be:	d0 40       	sbci	r29, 0x00	; 0
    11c0:	cf 55       	subi	r28, 0x5F	; 95
    11c2:	df 4f       	sbci	r29, 0xFF	; 255
    11c4:	88 83       	st	Y, r24
    11c6:	99 83       	std	Y+1, r25	; 0x01
    11c8:	aa 83       	std	Y+2, r26	; 0x02
    11ca:	bb 83       	std	Y+3, r27	; 0x03
    11cc:	c1 5a       	subi	r28, 0xA1	; 161
    11ce:	d0 40       	sbci	r29, 0x00	; 0

000011d0 <.LM124>:
    11d0:	8e 01       	movw	r16, r28
    11d2:	05 58       	subi	r16, 0x85	; 133
    11d4:	1f 4f       	sbci	r17, 0xFF	; 255
    11d6:	cf 55       	subi	r28, 0x5F	; 95
    11d8:	df 4f       	sbci	r29, 0xFF	; 255
    11da:	68 81       	ld	r22, Y
    11dc:	79 81       	ldd	r23, Y+1	; 0x01
    11de:	8a 81       	ldd	r24, Y+2	; 0x02
    11e0:	9b 81       	ldd	r25, Y+3	; 0x03
    11e2:	c1 5a       	subi	r28, 0xA1	; 161
    11e4:	d0 40       	sbci	r29, 0x00	; 0
    11e6:	0e 94 88 1c 	call	0x3910	; 0x3910 <__fixunssfsi>
    11ea:	c3 50       	subi	r28, 0x03	; 3
    11ec:	df 4f       	sbci	r29, 0xFF	; 255
    11ee:	68 83       	st	Y, r22
    11f0:	79 83       	std	Y+1, r23	; 0x01
    11f2:	8a 83       	std	Y+2, r24	; 0x02
    11f4:	9b 83       	std	Y+3, r25	; 0x03
    11f6:	cd 5f       	subi	r28, 0xFD	; 253
    11f8:	d0 40       	sbci	r29, 0x00	; 0
    11fa:	c3 50       	subi	r28, 0x03	; 3
    11fc:	df 4f       	sbci	r29, 0xFF	; 255
    11fe:	e8 81       	ld	r30, Y
    1200:	f9 81       	ldd	r31, Y+1	; 0x01
    1202:	cd 5f       	subi	r28, 0xFD	; 253
    1204:	d0 40       	sbci	r29, 0x00	; 0
    1206:	d8 01       	movw	r26, r16
    1208:	11 96       	adiw	r26, 0x01	; 1
    120a:	fc 93       	st	X, r31
    120c:	ee 93       	st	-X, r30

0000120e <.LM125>:
    120e:	26 c0       	rjmp	.+76     	; 0x125c <.L50>

00001210 <.L51>:
    1210:	ce 01       	movw	r24, r28
    1212:	83 58       	subi	r24, 0x83	; 131
    1214:	9f 4f       	sbci	r25, 0xFF	; 255
    1216:	28 ec       	ldi	r18, 0xC8	; 200
    1218:	30 e0       	ldi	r19, 0x00	; 0
    121a:	dc 01       	movw	r26, r24
    121c:	2d 93       	st	X+, r18
    121e:	3c 93       	st	X, r19

00001220 <.LM126>:
    1220:	ce 01       	movw	r24, r28
    1222:	83 58       	subi	r24, 0x83	; 131
    1224:	9f 4f       	sbci	r25, 0xFF	; 255
    1226:	fc 01       	movw	r30, r24
    1228:	80 81       	ld	r24, Z
    122a:	91 81       	ldd	r25, Z+1	; 0x01

0000122c <.L1^B11>:
    122c:	01 97       	sbiw	r24, 0x01	; 1
    122e:	f1 f7       	brne	.-4      	; 0x122c <.L1^B11>
    1230:	9e 01       	movw	r18, r28
    1232:	23 58       	subi	r18, 0x83	; 131
    1234:	3f 4f       	sbci	r19, 0xFF	; 255
    1236:	d9 01       	movw	r26, r18
    1238:	8d 93       	st	X+, r24
    123a:	9c 93       	st	X, r25

0000123c <.LM127>:
	...

0000123e <.LM128>:
    123e:	ce 01       	movw	r24, r28
    1240:	85 58       	subi	r24, 0x85	; 133
    1242:	9f 4f       	sbci	r25, 0xFF	; 255
    1244:	9e 01       	movw	r18, r28
    1246:	25 58       	subi	r18, 0x85	; 133
    1248:	3f 4f       	sbci	r19, 0xFF	; 255
    124a:	f9 01       	movw	r30, r18
    124c:	20 81       	ld	r18, Z
    124e:	31 81       	ldd	r19, Z+1	; 0x01
    1250:	21 50       	subi	r18, 0x01	; 1
    1252:	31 09       	sbc	r19, r1
    1254:	dc 01       	movw	r26, r24
    1256:	11 96       	adiw	r26, 0x01	; 1
    1258:	3c 93       	st	X, r19
    125a:	2e 93       	st	-X, r18

0000125c <.L50>:
    125c:	ce 01       	movw	r24, r28
    125e:	85 58       	subi	r24, 0x85	; 133
    1260:	9f 4f       	sbci	r25, 0xFF	; 255
    1262:	fc 01       	movw	r30, r24
    1264:	80 81       	ld	r24, Z
    1266:	91 81       	ldd	r25, Z+1	; 0x01
    1268:	00 97       	sbiw	r24, 0x00	; 0
    126a:	91 f6       	brne	.-92     	; 0x1210 <.L51>

0000126c <.LM130>:
    126c:	39 c0       	rjmp	.+114    	; 0x12e0 <.L52>

0000126e <.L107>:
    126e:	8e 01       	movw	r16, r28
    1270:	05 58       	subi	r16, 0x85	; 133
    1272:	1f 4f       	sbci	r17, 0xFF	; 255
    1274:	ce 01       	movw	r24, r28
    1276:	89 58       	subi	r24, 0x89	; 137
    1278:	9f 4f       	sbci	r25, 0xFF	; 255
    127a:	dc 01       	movw	r26, r24
    127c:	6d 91       	ld	r22, X+
    127e:	7d 91       	ld	r23, X+
    1280:	8d 91       	ld	r24, X+
    1282:	9c 91       	ld	r25, X
    1284:	0e 94 88 1c 	call	0x3910	; 0x3910 <__fixunssfsi>
    1288:	cf 5f       	subi	r28, 0xFF	; 255
    128a:	de 4f       	sbci	r29, 0xFE	; 254
    128c:	68 83       	st	Y, r22
    128e:	79 83       	std	Y+1, r23	; 0x01
    1290:	8a 83       	std	Y+2, r24	; 0x02
    1292:	9b 83       	std	Y+3, r25	; 0x03
    1294:	c1 50       	subi	r28, 0x01	; 1
    1296:	d1 40       	sbci	r29, 0x01	; 1
    1298:	cf 5f       	subi	r28, 0xFF	; 255
    129a:	de 4f       	sbci	r29, 0xFE	; 254
    129c:	88 81       	ld	r24, Y
    129e:	99 81       	ldd	r25, Y+1	; 0x01
    12a0:	c1 50       	subi	r28, 0x01	; 1
    12a2:	d1 40       	sbci	r29, 0x01	; 1
    12a4:	f8 01       	movw	r30, r16
    12a6:	91 83       	std	Z+1, r25	; 0x01
    12a8:	80 83       	st	Z, r24

000012aa <.L47>:
    12aa:	ce 01       	movw	r24, r28
    12ac:	81 58       	subi	r24, 0x81	; 129
    12ae:	9f 4f       	sbci	r25, 0xFF	; 255
    12b0:	9e 01       	movw	r18, r28
    12b2:	25 58       	subi	r18, 0x85	; 133
    12b4:	3f 4f       	sbci	r19, 0xFF	; 255
    12b6:	d9 01       	movw	r26, r18
    12b8:	2d 91       	ld	r18, X+
    12ba:	3c 91       	ld	r19, X
    12bc:	fc 01       	movw	r30, r24
    12be:	31 83       	std	Z+1, r19	; 0x01
    12c0:	20 83       	st	Z, r18

000012c2 <.LM132>:
    12c2:	ce 01       	movw	r24, r28
    12c4:	81 58       	subi	r24, 0x81	; 129
    12c6:	9f 4f       	sbci	r25, 0xFF	; 255
    12c8:	dc 01       	movw	r26, r24
    12ca:	8d 91       	ld	r24, X+
    12cc:	9c 91       	ld	r25, X

000012ce <.L1^B12>:
    12ce:	01 97       	sbiw	r24, 0x01	; 1
    12d0:	f1 f7       	brne	.-4      	; 0x12ce <.L1^B12>
    12d2:	9e 01       	movw	r18, r28
    12d4:	21 58       	subi	r18, 0x81	; 129
    12d6:	3f 4f       	sbci	r19, 0xFF	; 255
    12d8:	f9 01       	movw	r30, r18
    12da:	91 83       	std	Z+1, r25	; 0x01
    12dc:	80 83       	st	Z, r24

000012de <.LM133>:
	...

000012e0 <.L52>:
    12e0:	8c e0       	ldi	r24, 0x0C	; 12
    12e2:	8a 83       	std	Y+2, r24	; 0x02

000012e4 <.LM135>:
    12e4:	89 81       	ldd	r24, Y+1	; 0x01
    12e6:	28 2f       	mov	r18, r24
    12e8:	30 e0       	ldi	r19, 0x00	; 0
    12ea:	4d e0       	ldi	r20, 0x0D	; 13
    12ec:	42 9f       	mul	r20, r18
    12ee:	c0 01       	movw	r24, r0
    12f0:	43 9f       	mul	r20, r19
    12f2:	90 0d       	add	r25, r0
    12f4:	11 24       	eor	r1, r1
    12f6:	8c 57       	subi	r24, 0x7C	; 124
    12f8:	9f 4f       	sbci	r25, 0xFF	; 255
    12fa:	dc 01       	movw	r26, r24
    12fc:	8c 91       	ld	r24, X
    12fe:	82 fb       	bst	r24, 2
    1300:	88 27       	eor	r24, r24
    1302:	80 f9       	bld	r24, 0
    1304:	88 2f       	mov	r24, r24
    1306:	90 e0       	ldi	r25, 0x00	; 0

00001308 <.LM136>:
    1308:	88 0f       	add	r24, r24
    130a:	99 1f       	adc	r25, r25

0000130c <.LM137>:
    130c:	58 2f       	mov	r21, r24

0000130e <.LM138>:
    130e:	89 81       	ldd	r24, Y+1	; 0x01
    1310:	28 2f       	mov	r18, r24
    1312:	30 e0       	ldi	r19, 0x00	; 0
    1314:	4d e0       	ldi	r20, 0x0D	; 13
    1316:	42 9f       	mul	r20, r18
    1318:	c0 01       	movw	r24, r0
    131a:	43 9f       	mul	r20, r19
    131c:	90 0d       	add	r25, r0
    131e:	11 24       	eor	r1, r1
    1320:	8c 57       	subi	r24, 0x7C	; 124
    1322:	9f 4f       	sbci	r25, 0xFF	; 255
    1324:	fc 01       	movw	r30, r24
    1326:	80 81       	ld	r24, Z
    1328:	86 95       	lsr	r24
    132a:	81 70       	andi	r24, 0x01	; 1

0000132c <.LM139>:
    132c:	95 2f       	mov	r25, r21
    132e:	98 2b       	or	r25, r24

00001330 <.LM140>:
    1330:	8a 81       	ldd	r24, Y+2	; 0x02
    1332:	89 2b       	or	r24, r25
    1334:	8a 83       	std	Y+2, r24	; 0x02

00001336 <.LM141>:
    1336:	6a 81       	ldd	r22, Y+2	; 0x02
    1338:	89 81       	ldd	r24, Y+1	; 0x01
    133a:	0e 94 13 10 	call	0x2026	; 0x2026 <HLCD_voidSendCommand>
    133e:	9e 01       	movw	r18, r28
    1340:	2b 59       	subi	r18, 0x9B	; 155
    1342:	3f 4f       	sbci	r19, 0xFF	; 255
    1344:	80 e0       	ldi	r24, 0x00	; 0
    1346:	90 e0       	ldi	r25, 0x00	; 0
    1348:	a0 e8       	ldi	r26, 0x80	; 128
    134a:	bf e3       	ldi	r27, 0x3F	; 63
    134c:	f9 01       	movw	r30, r18
    134e:	80 83       	st	Z, r24
    1350:	91 83       	std	Z+1, r25	; 0x01
    1352:	a2 83       	std	Z+2, r26	; 0x02
    1354:	b3 83       	std	Z+3, r27	; 0x03

00001356 <.LM142>:
    1356:	8e 01       	movw	r16, r28
    1358:	07 59       	subi	r16, 0x97	; 151
    135a:	1f 4f       	sbci	r17, 0xFF	; 255
    135c:	ce 01       	movw	r24, r28
    135e:	8b 59       	subi	r24, 0x9B	; 155
    1360:	9f 4f       	sbci	r25, 0xFF	; 255
    1362:	20 e0       	ldi	r18, 0x00	; 0
    1364:	30 e0       	ldi	r19, 0x00	; 0
    1366:	4a ef       	ldi	r20, 0xFA	; 250
    1368:	54 e4       	ldi	r21, 0x44	; 68
    136a:	dc 01       	movw	r26, r24
    136c:	6d 91       	ld	r22, X+
    136e:	7d 91       	ld	r23, X+
    1370:	8d 91       	ld	r24, X+
    1372:	9c 91       	ld	r25, X
    1374:	0e 94 6e 1d 	call	0x3adc	; 0x3adc <__mulsf3>
    1378:	cb 5f       	subi	r28, 0xFB	; 251
    137a:	de 4f       	sbci	r29, 0xFE	; 254
    137c:	68 83       	st	Y, r22
    137e:	79 83       	std	Y+1, r23	; 0x01
    1380:	8a 83       	std	Y+2, r24	; 0x02
    1382:	9b 83       	std	Y+3, r25	; 0x03
    1384:	c5 50       	subi	r28, 0x05	; 5
    1386:	d1 40       	sbci	r29, 0x01	; 1
    1388:	cb 5f       	subi	r28, 0xFB	; 251
    138a:	de 4f       	sbci	r29, 0xFE	; 254
    138c:	88 81       	ld	r24, Y
    138e:	99 81       	ldd	r25, Y+1	; 0x01
    1390:	aa 81       	ldd	r26, Y+2	; 0x02
    1392:	bb 81       	ldd	r27, Y+3	; 0x03
    1394:	c5 50       	subi	r28, 0x05	; 5
    1396:	d1 40       	sbci	r29, 0x01	; 1
    1398:	f8 01       	movw	r30, r16
    139a:	80 83       	st	Z, r24
    139c:	91 83       	std	Z+1, r25	; 0x01
    139e:	a2 83       	std	Z+2, r26	; 0x02
    13a0:	b3 83       	std	Z+3, r27	; 0x03

000013a2 <.LM143>:
    13a2:	ce 01       	movw	r24, r28
    13a4:	87 59       	subi	r24, 0x97	; 151
    13a6:	9f 4f       	sbci	r25, 0xFF	; 255
    13a8:	20 e0       	ldi	r18, 0x00	; 0
    13aa:	30 e0       	ldi	r19, 0x00	; 0
    13ac:	40 e8       	ldi	r20, 0x80	; 128
    13ae:	5f e3       	ldi	r21, 0x3F	; 63
    13b0:	dc 01       	movw	r26, r24
    13b2:	6d 91       	ld	r22, X+
    13b4:	7d 91       	ld	r23, X+
    13b6:	8d 91       	ld	r24, X+
    13b8:	9c 91       	ld	r25, X
    13ba:	0e 94 11 1c 	call	0x3822	; 0x3822 <__cmpsf2>
    13be:	88 23       	and	r24, r24
    13c0:	4c f4       	brge	.+18     	; 0x13d4 <.L108>

000013c2 <.LM144>:
    13c2:	ce 01       	movw	r24, r28
    13c4:	83 59       	subi	r24, 0x93	; 147
    13c6:	9f 4f       	sbci	r25, 0xFF	; 255
    13c8:	21 e0       	ldi	r18, 0x01	; 1
    13ca:	30 e0       	ldi	r19, 0x00	; 0
    13cc:	fc 01       	movw	r30, r24
    13ce:	31 83       	std	Z+1, r19	; 0x01
    13d0:	20 83       	st	Z, r18
    13d2:	a5 c0       	rjmp	.+330    	; 0x151e <.L55>

000013d4 <.L108>:
    13d4:	ce 01       	movw	r24, r28
    13d6:	87 59       	subi	r24, 0x97	; 151
    13d8:	9f 4f       	sbci	r25, 0xFF	; 255
    13da:	20 e0       	ldi	r18, 0x00	; 0
    13dc:	3f ef       	ldi	r19, 0xFF	; 255
    13de:	4f e7       	ldi	r20, 0x7F	; 127
    13e0:	57 e4       	ldi	r21, 0x47	; 71
    13e2:	dc 01       	movw	r26, r24
    13e4:	6d 91       	ld	r22, X+
    13e6:	7d 91       	ld	r23, X+
    13e8:	8d 91       	ld	r24, X+
    13ea:	9c 91       	ld	r25, X
    13ec:	0e 94 69 1d 	call	0x3ad2	; 0x3ad2 <__gesf2>
    13f0:	88 23       	and	r24, r24
    13f2:	09 f0       	breq	.+2      	; 0x13f6 <L0^A>

000013f4 <L0^A>:
    13f4:	0c f4       	brge	.+2      	; 0x13f8 <.LM146>

000013f6 <L0^A>:
    13f6:	75 c0       	rjmp	.+234    	; 0x14e2 <.L109>

000013f8 <.LM146>:
    13f8:	ce 01       	movw	r24, r28
    13fa:	8b 59       	subi	r24, 0x9B	; 155
    13fc:	9f 4f       	sbci	r25, 0xFF	; 255
    13fe:	20 e0       	ldi	r18, 0x00	; 0
    1400:	30 e0       	ldi	r19, 0x00	; 0
    1402:	40 e2       	ldi	r20, 0x20	; 32
    1404:	51 e4       	ldi	r21, 0x41	; 65
    1406:	fc 01       	movw	r30, r24
    1408:	60 81       	ld	r22, Z
    140a:	71 81       	ldd	r23, Z+1	; 0x01
    140c:	82 81       	ldd	r24, Z+2	; 0x02
    140e:	93 81       	ldd	r25, Z+3	; 0x03
    1410:	0e 94 6e 1d 	call	0x3adc	; 0x3adc <__mulsf3>
    1414:	c7 5f       	subi	r28, 0xF7	; 247
    1416:	de 4f       	sbci	r29, 0xFE	; 254
    1418:	68 83       	st	Y, r22
    141a:	79 83       	std	Y+1, r23	; 0x01
    141c:	8a 83       	std	Y+2, r24	; 0x02
    141e:	9b 83       	std	Y+3, r25	; 0x03
    1420:	c9 50       	subi	r28, 0x09	; 9
    1422:	d1 40       	sbci	r29, 0x01	; 1
    1424:	c7 5f       	subi	r28, 0xF7	; 247
    1426:	de 4f       	sbci	r29, 0xFE	; 254
    1428:	88 81       	ld	r24, Y
    142a:	99 81       	ldd	r25, Y+1	; 0x01
    142c:	aa 81       	ldd	r26, Y+2	; 0x02
    142e:	bb 81       	ldd	r27, Y+3	; 0x03
    1430:	c9 50       	subi	r28, 0x09	; 9
    1432:	d1 40       	sbci	r29, 0x01	; 1
    1434:	c3 56       	subi	r28, 0x63	; 99
    1436:	df 4f       	sbci	r29, 0xFF	; 255
    1438:	88 83       	st	Y, r24
    143a:	99 83       	std	Y+1, r25	; 0x01
    143c:	aa 83       	std	Y+2, r26	; 0x02
    143e:	bb 83       	std	Y+3, r27	; 0x03
    1440:	cd 59       	subi	r28, 0x9D	; 157
    1442:	d0 40       	sbci	r29, 0x00	; 0

00001444 <.LM147>:
    1444:	8e 01       	movw	r16, r28
    1446:	03 59       	subi	r16, 0x93	; 147
    1448:	1f 4f       	sbci	r17, 0xFF	; 255
    144a:	c3 56       	subi	r28, 0x63	; 99
    144c:	df 4f       	sbci	r29, 0xFF	; 255
    144e:	68 81       	ld	r22, Y
    1450:	79 81       	ldd	r23, Y+1	; 0x01
    1452:	8a 81       	ldd	r24, Y+2	; 0x02
    1454:	9b 81       	ldd	r25, Y+3	; 0x03
    1456:	cd 59       	subi	r28, 0x9D	; 157
    1458:	d0 40       	sbci	r29, 0x00	; 0
    145a:	0e 94 88 1c 	call	0x3910	; 0x3910 <__fixunssfsi>
    145e:	c3 5f       	subi	r28, 0xF3	; 243
    1460:	de 4f       	sbci	r29, 0xFE	; 254
    1462:	68 83       	st	Y, r22
    1464:	79 83       	std	Y+1, r23	; 0x01
    1466:	8a 83       	std	Y+2, r24	; 0x02
    1468:	9b 83       	std	Y+3, r25	; 0x03
    146a:	cd 50       	subi	r28, 0x0D	; 13
    146c:	d1 40       	sbci	r29, 0x01	; 1
    146e:	c3 5f       	subi	r28, 0xF3	; 243
    1470:	de 4f       	sbci	r29, 0xFE	; 254
    1472:	e8 81       	ld	r30, Y
    1474:	f9 81       	ldd	r31, Y+1	; 0x01
    1476:	cd 50       	subi	r28, 0x0D	; 13
    1478:	d1 40       	sbci	r29, 0x01	; 1
    147a:	d8 01       	movw	r26, r16
    147c:	11 96       	adiw	r26, 0x01	; 1
    147e:	fc 93       	st	X, r31
    1480:	ee 93       	st	-X, r30

00001482 <.LM148>:
    1482:	26 c0       	rjmp	.+76     	; 0x14d0 <.L58>

00001484 <.L59>:
    1484:	ce 01       	movw	r24, r28
    1486:	81 59       	subi	r24, 0x91	; 145
    1488:	9f 4f       	sbci	r25, 0xFF	; 255
    148a:	28 ec       	ldi	r18, 0xC8	; 200
    148c:	30 e0       	ldi	r19, 0x00	; 0
    148e:	dc 01       	movw	r26, r24
    1490:	2d 93       	st	X+, r18
    1492:	3c 93       	st	X, r19

00001494 <.LM149>:
    1494:	ce 01       	movw	r24, r28
    1496:	81 59       	subi	r24, 0x91	; 145
    1498:	9f 4f       	sbci	r25, 0xFF	; 255
    149a:	fc 01       	movw	r30, r24
    149c:	80 81       	ld	r24, Z
    149e:	91 81       	ldd	r25, Z+1	; 0x01

000014a0 <.L1^B13>:
    14a0:	01 97       	sbiw	r24, 0x01	; 1
    14a2:	f1 f7       	brne	.-4      	; 0x14a0 <.L1^B13>
    14a4:	9e 01       	movw	r18, r28
    14a6:	21 59       	subi	r18, 0x91	; 145
    14a8:	3f 4f       	sbci	r19, 0xFF	; 255
    14aa:	d9 01       	movw	r26, r18
    14ac:	8d 93       	st	X+, r24
    14ae:	9c 93       	st	X, r25

000014b0 <.LM150>:
	...

000014b2 <.LM151>:
    14b2:	ce 01       	movw	r24, r28
    14b4:	83 59       	subi	r24, 0x93	; 147
    14b6:	9f 4f       	sbci	r25, 0xFF	; 255
    14b8:	9e 01       	movw	r18, r28
    14ba:	23 59       	subi	r18, 0x93	; 147
    14bc:	3f 4f       	sbci	r19, 0xFF	; 255
    14be:	f9 01       	movw	r30, r18
    14c0:	20 81       	ld	r18, Z
    14c2:	31 81       	ldd	r19, Z+1	; 0x01
    14c4:	21 50       	subi	r18, 0x01	; 1
    14c6:	31 09       	sbc	r19, r1
    14c8:	dc 01       	movw	r26, r24
    14ca:	11 96       	adiw	r26, 0x01	; 1
    14cc:	3c 93       	st	X, r19
    14ce:	2e 93       	st	-X, r18

000014d0 <.L58>:
    14d0:	ce 01       	movw	r24, r28
    14d2:	83 59       	subi	r24, 0x93	; 147
    14d4:	9f 4f       	sbci	r25, 0xFF	; 255
    14d6:	fc 01       	movw	r30, r24
    14d8:	80 81       	ld	r24, Z
    14da:	91 81       	ldd	r25, Z+1	; 0x01
    14dc:	00 97       	sbiw	r24, 0x00	; 0
    14de:	91 f6       	brne	.-92     	; 0x1484 <.L59>

000014e0 <.LM153>:
    14e0:	39 c0       	rjmp	.+114    	; 0x1554 <.L60>

000014e2 <.L109>:
    14e2:	8e 01       	movw	r16, r28
    14e4:	03 59       	subi	r16, 0x93	; 147
    14e6:	1f 4f       	sbci	r17, 0xFF	; 255
    14e8:	ce 01       	movw	r24, r28
    14ea:	87 59       	subi	r24, 0x97	; 151
    14ec:	9f 4f       	sbci	r25, 0xFF	; 255
    14ee:	dc 01       	movw	r26, r24
    14f0:	6d 91       	ld	r22, X+
    14f2:	7d 91       	ld	r23, X+
    14f4:	8d 91       	ld	r24, X+
    14f6:	9c 91       	ld	r25, X
    14f8:	0e 94 88 1c 	call	0x3910	; 0x3910 <__fixunssfsi>
    14fc:	cf 5e       	subi	r28, 0xEF	; 239
    14fe:	de 4f       	sbci	r29, 0xFE	; 254
    1500:	68 83       	st	Y, r22
    1502:	79 83       	std	Y+1, r23	; 0x01
    1504:	8a 83       	std	Y+2, r24	; 0x02
    1506:	9b 83       	std	Y+3, r25	; 0x03
    1508:	c1 51       	subi	r28, 0x11	; 17
    150a:	d1 40       	sbci	r29, 0x01	; 1
    150c:	cf 5e       	subi	r28, 0xEF	; 239
    150e:	de 4f       	sbci	r29, 0xFE	; 254
    1510:	88 81       	ld	r24, Y
    1512:	99 81       	ldd	r25, Y+1	; 0x01
    1514:	c1 51       	subi	r28, 0x11	; 17
    1516:	d1 40       	sbci	r29, 0x01	; 1
    1518:	f8 01       	movw	r30, r16
    151a:	91 83       	std	Z+1, r25	; 0x01
    151c:	80 83       	st	Z, r24

0000151e <.L55>:
    151e:	ce 01       	movw	r24, r28
    1520:	8f 58       	subi	r24, 0x8F	; 143
    1522:	9f 4f       	sbci	r25, 0xFF	; 255
    1524:	9e 01       	movw	r18, r28
    1526:	23 59       	subi	r18, 0x93	; 147
    1528:	3f 4f       	sbci	r19, 0xFF	; 255
    152a:	d9 01       	movw	r26, r18
    152c:	2d 91       	ld	r18, X+
    152e:	3c 91       	ld	r19, X
    1530:	fc 01       	movw	r30, r24
    1532:	31 83       	std	Z+1, r19	; 0x01
    1534:	20 83       	st	Z, r18

00001536 <.LM155>:
    1536:	ce 01       	movw	r24, r28
    1538:	8f 58       	subi	r24, 0x8F	; 143
    153a:	9f 4f       	sbci	r25, 0xFF	; 255
    153c:	dc 01       	movw	r26, r24
    153e:	8d 91       	ld	r24, X+
    1540:	9c 91       	ld	r25, X

00001542 <.L1^B14>:
    1542:	01 97       	sbiw	r24, 0x01	; 1
    1544:	f1 f7       	brne	.-4      	; 0x1542 <.L1^B14>
    1546:	9e 01       	movw	r18, r28
    1548:	2f 58       	subi	r18, 0x8F	; 143
    154a:	3f 4f       	sbci	r19, 0xFF	; 255
    154c:	f9 01       	movw	r30, r18
    154e:	91 83       	std	Z+1, r25	; 0x01
    1550:	80 83       	st	Z, r24

00001552 <.LM156>:
	...

00001554 <.L60>:
    1554:	61 e0       	ldi	r22, 0x01	; 1
    1556:	89 81       	ldd	r24, Y+1	; 0x01
    1558:	0e 94 13 10 	call	0x2026	; 0x2026 <HLCD_voidSendCommand>
    155c:	9e 01       	movw	r18, r28
    155e:	29 5a       	subi	r18, 0xA9	; 169
    1560:	3f 4f       	sbci	r19, 0xFF	; 255
    1562:	80 e0       	ldi	r24, 0x00	; 0
    1564:	90 e0       	ldi	r25, 0x00	; 0
    1566:	a0 e0       	ldi	r26, 0x00	; 0
    1568:	b0 e4       	ldi	r27, 0x40	; 64
    156a:	f9 01       	movw	r30, r18
    156c:	80 83       	st	Z, r24
    156e:	91 83       	std	Z+1, r25	; 0x01
    1570:	a2 83       	std	Z+2, r26	; 0x02
    1572:	b3 83       	std	Z+3, r27	; 0x03

00001574 <.LM158>:
    1574:	8e 01       	movw	r16, r28
    1576:	05 5a       	subi	r16, 0xA5	; 165
    1578:	1f 4f       	sbci	r17, 0xFF	; 255
    157a:	ce 01       	movw	r24, r28
    157c:	89 5a       	subi	r24, 0xA9	; 169
    157e:	9f 4f       	sbci	r25, 0xFF	; 255
    1580:	20 e0       	ldi	r18, 0x00	; 0
    1582:	30 e0       	ldi	r19, 0x00	; 0
    1584:	4a ef       	ldi	r20, 0xFA	; 250
    1586:	54 e4       	ldi	r21, 0x44	; 68
    1588:	dc 01       	movw	r26, r24
    158a:	6d 91       	ld	r22, X+
    158c:	7d 91       	ld	r23, X+
    158e:	8d 91       	ld	r24, X+
    1590:	9c 91       	ld	r25, X
    1592:	0e 94 6e 1d 	call	0x3adc	; 0x3adc <__mulsf3>
    1596:	cb 5e       	subi	r28, 0xEB	; 235
    1598:	de 4f       	sbci	r29, 0xFE	; 254
    159a:	68 83       	st	Y, r22
    159c:	79 83       	std	Y+1, r23	; 0x01
    159e:	8a 83       	std	Y+2, r24	; 0x02
    15a0:	9b 83       	std	Y+3, r25	; 0x03
    15a2:	c5 51       	subi	r28, 0x15	; 21
    15a4:	d1 40       	sbci	r29, 0x01	; 1
    15a6:	cb 5e       	subi	r28, 0xEB	; 235
    15a8:	de 4f       	sbci	r29, 0xFE	; 254
    15aa:	88 81       	ld	r24, Y
    15ac:	99 81       	ldd	r25, Y+1	; 0x01
    15ae:	aa 81       	ldd	r26, Y+2	; 0x02
    15b0:	bb 81       	ldd	r27, Y+3	; 0x03
    15b2:	c5 51       	subi	r28, 0x15	; 21
    15b4:	d1 40       	sbci	r29, 0x01	; 1
    15b6:	f8 01       	movw	r30, r16
    15b8:	80 83       	st	Z, r24
    15ba:	91 83       	std	Z+1, r25	; 0x01
    15bc:	a2 83       	std	Z+2, r26	; 0x02
    15be:	b3 83       	std	Z+3, r27	; 0x03

000015c0 <.LM159>:
    15c0:	ce 01       	movw	r24, r28
    15c2:	85 5a       	subi	r24, 0xA5	; 165
    15c4:	9f 4f       	sbci	r25, 0xFF	; 255
    15c6:	20 e0       	ldi	r18, 0x00	; 0
    15c8:	30 e0       	ldi	r19, 0x00	; 0
    15ca:	40 e8       	ldi	r20, 0x80	; 128
    15cc:	5f e3       	ldi	r21, 0x3F	; 63
    15ce:	dc 01       	movw	r26, r24
    15d0:	6d 91       	ld	r22, X+
    15d2:	7d 91       	ld	r23, X+
    15d4:	8d 91       	ld	r24, X+
    15d6:	9c 91       	ld	r25, X
    15d8:	0e 94 11 1c 	call	0x3822	; 0x3822 <__cmpsf2>
    15dc:	88 23       	and	r24, r24
    15de:	4c f4       	brge	.+18     	; 0x15f2 <.L110>

000015e0 <.LM160>:
    15e0:	ce 01       	movw	r24, r28
    15e2:	81 5a       	subi	r24, 0xA1	; 161
    15e4:	9f 4f       	sbci	r25, 0xFF	; 255
    15e6:	21 e0       	ldi	r18, 0x01	; 1
    15e8:	30 e0       	ldi	r19, 0x00	; 0
    15ea:	fc 01       	movw	r30, r24
    15ec:	31 83       	std	Z+1, r19	; 0x01
    15ee:	20 83       	st	Z, r18
    15f0:	a5 c0       	rjmp	.+330    	; 0x173c <.L63>

000015f2 <.L110>:
    15f2:	ce 01       	movw	r24, r28
    15f4:	85 5a       	subi	r24, 0xA5	; 165
    15f6:	9f 4f       	sbci	r25, 0xFF	; 255
    15f8:	20 e0       	ldi	r18, 0x00	; 0
    15fa:	3f ef       	ldi	r19, 0xFF	; 255
    15fc:	4f e7       	ldi	r20, 0x7F	; 127
    15fe:	57 e4       	ldi	r21, 0x47	; 71
    1600:	dc 01       	movw	r26, r24
    1602:	6d 91       	ld	r22, X+
    1604:	7d 91       	ld	r23, X+
    1606:	8d 91       	ld	r24, X+
    1608:	9c 91       	ld	r25, X
    160a:	0e 94 69 1d 	call	0x3ad2	; 0x3ad2 <__gesf2>
    160e:	88 23       	and	r24, r24
    1610:	09 f0       	breq	.+2      	; 0x1614 <L0^A>

00001612 <L0^A>:
    1612:	0c f4       	brge	.+2      	; 0x1616 <.LM162>

00001614 <L0^A>:
    1614:	75 c0       	rjmp	.+234    	; 0x1700 <.L111>

00001616 <.LM162>:
    1616:	ce 01       	movw	r24, r28
    1618:	89 5a       	subi	r24, 0xA9	; 169
    161a:	9f 4f       	sbci	r25, 0xFF	; 255
    161c:	20 e0       	ldi	r18, 0x00	; 0
    161e:	30 e0       	ldi	r19, 0x00	; 0
    1620:	40 e2       	ldi	r20, 0x20	; 32
    1622:	51 e4       	ldi	r21, 0x41	; 65
    1624:	fc 01       	movw	r30, r24
    1626:	60 81       	ld	r22, Z
    1628:	71 81       	ldd	r23, Z+1	; 0x01
    162a:	82 81       	ldd	r24, Z+2	; 0x02
    162c:	93 81       	ldd	r25, Z+3	; 0x03
    162e:	0e 94 6e 1d 	call	0x3adc	; 0x3adc <__mulsf3>
    1632:	c7 5e       	subi	r28, 0xE7	; 231
    1634:	de 4f       	sbci	r29, 0xFE	; 254
    1636:	68 83       	st	Y, r22
    1638:	79 83       	std	Y+1, r23	; 0x01
    163a:	8a 83       	std	Y+2, r24	; 0x02
    163c:	9b 83       	std	Y+3, r25	; 0x03
    163e:	c9 51       	subi	r28, 0x19	; 25
    1640:	d1 40       	sbci	r29, 0x01	; 1
    1642:	c7 5e       	subi	r28, 0xE7	; 231
    1644:	de 4f       	sbci	r29, 0xFE	; 254
    1646:	88 81       	ld	r24, Y
    1648:	99 81       	ldd	r25, Y+1	; 0x01
    164a:	aa 81       	ldd	r26, Y+2	; 0x02
    164c:	bb 81       	ldd	r27, Y+3	; 0x03
    164e:	c9 51       	subi	r28, 0x19	; 25
    1650:	d1 40       	sbci	r29, 0x01	; 1
    1652:	c7 56       	subi	r28, 0x67	; 103
    1654:	df 4f       	sbci	r29, 0xFF	; 255
    1656:	88 83       	st	Y, r24
    1658:	99 83       	std	Y+1, r25	; 0x01
    165a:	aa 83       	std	Y+2, r26	; 0x02
    165c:	bb 83       	std	Y+3, r27	; 0x03
    165e:	c9 59       	subi	r28, 0x99	; 153
    1660:	d0 40       	sbci	r29, 0x00	; 0

00001662 <.LM163>:
    1662:	8e 01       	movw	r16, r28
    1664:	01 5a       	subi	r16, 0xA1	; 161
    1666:	1f 4f       	sbci	r17, 0xFF	; 255
    1668:	c7 56       	subi	r28, 0x67	; 103
    166a:	df 4f       	sbci	r29, 0xFF	; 255
    166c:	68 81       	ld	r22, Y
    166e:	79 81       	ldd	r23, Y+1	; 0x01
    1670:	8a 81       	ldd	r24, Y+2	; 0x02
    1672:	9b 81       	ldd	r25, Y+3	; 0x03
    1674:	c9 59       	subi	r28, 0x99	; 153
    1676:	d0 40       	sbci	r29, 0x00	; 0
    1678:	0e 94 88 1c 	call	0x3910	; 0x3910 <__fixunssfsi>
    167c:	c3 5e       	subi	r28, 0xE3	; 227
    167e:	de 4f       	sbci	r29, 0xFE	; 254
    1680:	68 83       	st	Y, r22
    1682:	79 83       	std	Y+1, r23	; 0x01
    1684:	8a 83       	std	Y+2, r24	; 0x02
    1686:	9b 83       	std	Y+3, r25	; 0x03
    1688:	cd 51       	subi	r28, 0x1D	; 29
    168a:	d1 40       	sbci	r29, 0x01	; 1
    168c:	c3 5e       	subi	r28, 0xE3	; 227
    168e:	de 4f       	sbci	r29, 0xFE	; 254
    1690:	e8 81       	ld	r30, Y
    1692:	f9 81       	ldd	r31, Y+1	; 0x01
    1694:	cd 51       	subi	r28, 0x1D	; 29
    1696:	d1 40       	sbci	r29, 0x01	; 1
    1698:	d8 01       	movw	r26, r16
    169a:	11 96       	adiw	r26, 0x01	; 1
    169c:	fc 93       	st	X, r31
    169e:	ee 93       	st	-X, r30

000016a0 <.LM164>:
    16a0:	26 c0       	rjmp	.+76     	; 0x16ee <.L66>

000016a2 <.L67>:
    16a2:	ce 01       	movw	r24, r28
    16a4:	8f 59       	subi	r24, 0x9F	; 159
    16a6:	9f 4f       	sbci	r25, 0xFF	; 255
    16a8:	28 ec       	ldi	r18, 0xC8	; 200
    16aa:	30 e0       	ldi	r19, 0x00	; 0
    16ac:	dc 01       	movw	r26, r24
    16ae:	2d 93       	st	X+, r18
    16b0:	3c 93       	st	X, r19

000016b2 <.LM165>:
    16b2:	ce 01       	movw	r24, r28
    16b4:	8f 59       	subi	r24, 0x9F	; 159
    16b6:	9f 4f       	sbci	r25, 0xFF	; 255
    16b8:	fc 01       	movw	r30, r24
    16ba:	80 81       	ld	r24, Z
    16bc:	91 81       	ldd	r25, Z+1	; 0x01

000016be <.L1^B15>:
    16be:	01 97       	sbiw	r24, 0x01	; 1
    16c0:	f1 f7       	brne	.-4      	; 0x16be <.L1^B15>
    16c2:	9e 01       	movw	r18, r28
    16c4:	2f 59       	subi	r18, 0x9F	; 159
    16c6:	3f 4f       	sbci	r19, 0xFF	; 255
    16c8:	d9 01       	movw	r26, r18
    16ca:	8d 93       	st	X+, r24
    16cc:	9c 93       	st	X, r25

000016ce <.LM166>:
	...

000016d0 <.LM167>:
    16d0:	ce 01       	movw	r24, r28
    16d2:	81 5a       	subi	r24, 0xA1	; 161
    16d4:	9f 4f       	sbci	r25, 0xFF	; 255
    16d6:	9e 01       	movw	r18, r28
    16d8:	21 5a       	subi	r18, 0xA1	; 161
    16da:	3f 4f       	sbci	r19, 0xFF	; 255
    16dc:	f9 01       	movw	r30, r18
    16de:	20 81       	ld	r18, Z
    16e0:	31 81       	ldd	r19, Z+1	; 0x01
    16e2:	21 50       	subi	r18, 0x01	; 1
    16e4:	31 09       	sbc	r19, r1
    16e6:	dc 01       	movw	r26, r24
    16e8:	11 96       	adiw	r26, 0x01	; 1
    16ea:	3c 93       	st	X, r19
    16ec:	2e 93       	st	-X, r18

000016ee <.L66>:
    16ee:	ce 01       	movw	r24, r28
    16f0:	81 5a       	subi	r24, 0xA1	; 161
    16f2:	9f 4f       	sbci	r25, 0xFF	; 255
    16f4:	fc 01       	movw	r30, r24
    16f6:	80 81       	ld	r24, Z
    16f8:	91 81       	ldd	r25, Z+1	; 0x01
    16fa:	00 97       	sbiw	r24, 0x00	; 0
    16fc:	91 f6       	brne	.-92     	; 0x16a2 <.L67>

000016fe <.LM169>:
    16fe:	39 c0       	rjmp	.+114    	; 0x1772 <.L68>

00001700 <.L111>:
    1700:	8e 01       	movw	r16, r28
    1702:	01 5a       	subi	r16, 0xA1	; 161
    1704:	1f 4f       	sbci	r17, 0xFF	; 255
    1706:	ce 01       	movw	r24, r28
    1708:	85 5a       	subi	r24, 0xA5	; 165
    170a:	9f 4f       	sbci	r25, 0xFF	; 255
    170c:	dc 01       	movw	r26, r24
    170e:	6d 91       	ld	r22, X+
    1710:	7d 91       	ld	r23, X+
    1712:	8d 91       	ld	r24, X+
    1714:	9c 91       	ld	r25, X
    1716:	0e 94 88 1c 	call	0x3910	; 0x3910 <__fixunssfsi>
    171a:	cf 5d       	subi	r28, 0xDF	; 223
    171c:	de 4f       	sbci	r29, 0xFE	; 254
    171e:	68 83       	st	Y, r22
    1720:	79 83       	std	Y+1, r23	; 0x01
    1722:	8a 83       	std	Y+2, r24	; 0x02
    1724:	9b 83       	std	Y+3, r25	; 0x03
    1726:	c1 52       	subi	r28, 0x21	; 33
    1728:	d1 40       	sbci	r29, 0x01	; 1
    172a:	cf 5d       	subi	r28, 0xDF	; 223
    172c:	de 4f       	sbci	r29, 0xFE	; 254
    172e:	88 81       	ld	r24, Y
    1730:	99 81       	ldd	r25, Y+1	; 0x01
    1732:	c1 52       	subi	r28, 0x21	; 33
    1734:	d1 40       	sbci	r29, 0x01	; 1
    1736:	f8 01       	movw	r30, r16
    1738:	91 83       	std	Z+1, r25	; 0x01
    173a:	80 83       	st	Z, r24

0000173c <.L63>:
    173c:	ce 01       	movw	r24, r28
    173e:	8d 59       	subi	r24, 0x9D	; 157
    1740:	9f 4f       	sbci	r25, 0xFF	; 255
    1742:	9e 01       	movw	r18, r28
    1744:	21 5a       	subi	r18, 0xA1	; 161
    1746:	3f 4f       	sbci	r19, 0xFF	; 255
    1748:	d9 01       	movw	r26, r18
    174a:	2d 91       	ld	r18, X+
    174c:	3c 91       	ld	r19, X
    174e:	fc 01       	movw	r30, r24
    1750:	31 83       	std	Z+1, r19	; 0x01
    1752:	20 83       	st	Z, r18

00001754 <.LM171>:
    1754:	ce 01       	movw	r24, r28
    1756:	8d 59       	subi	r24, 0x9D	; 157
    1758:	9f 4f       	sbci	r25, 0xFF	; 255
    175a:	dc 01       	movw	r26, r24
    175c:	8d 91       	ld	r24, X+
    175e:	9c 91       	ld	r25, X

00001760 <.L1^B16>:
    1760:	01 97       	sbiw	r24, 0x01	; 1
    1762:	f1 f7       	brne	.-4      	; 0x1760 <.L1^B16>
    1764:	9e 01       	movw	r18, r28
    1766:	2d 59       	subi	r18, 0x9D	; 157
    1768:	3f 4f       	sbci	r19, 0xFF	; 255
    176a:	f9 01       	movw	r30, r18
    176c:	91 83       	std	Z+1, r25	; 0x01
    176e:	80 83       	st	Z, r24

00001770 <.LM172>:
	...

00001772 <.L68>:
    1772:	84 e0       	ldi	r24, 0x04	; 4
    1774:	8a 83       	std	Y+2, r24	; 0x02

00001776 <.LM174>:
    1776:	89 81       	ldd	r24, Y+1	; 0x01
    1778:	28 2f       	mov	r18, r24
    177a:	30 e0       	ldi	r19, 0x00	; 0
    177c:	4d e0       	ldi	r20, 0x0D	; 13
    177e:	42 9f       	mul	r20, r18
    1780:	c0 01       	movw	r24, r0
    1782:	43 9f       	mul	r20, r19
    1784:	90 0d       	add	r25, r0
    1786:	11 24       	eor	r1, r1
    1788:	8c 57       	subi	r24, 0x7C	; 124
    178a:	9f 4f       	sbci	r25, 0xFF	; 255
    178c:	dc 01       	movw	r26, r24
    178e:	8c 91       	ld	r24, X
    1790:	83 fb       	bst	r24, 3
    1792:	88 27       	eor	r24, r24
    1794:	80 f9       	bld	r24, 0
    1796:	88 2f       	mov	r24, r24
    1798:	90 e0       	ldi	r25, 0x00	; 0

0000179a <.LM175>:
    179a:	88 0f       	add	r24, r24
    179c:	99 1f       	adc	r25, r25

0000179e <.LM176>:
    179e:	58 2f       	mov	r21, r24

000017a0 <.LM177>:
    17a0:	89 81       	ldd	r24, Y+1	; 0x01
    17a2:	28 2f       	mov	r18, r24
    17a4:	30 e0       	ldi	r19, 0x00	; 0
    17a6:	4d e0       	ldi	r20, 0x0D	; 13
    17a8:	42 9f       	mul	r20, r18
    17aa:	c0 01       	movw	r24, r0
    17ac:	43 9f       	mul	r20, r19
    17ae:	90 0d       	add	r25, r0
    17b0:	11 24       	eor	r1, r1
    17b2:	8c 57       	subi	r24, 0x7C	; 124
    17b4:	9f 4f       	sbci	r25, 0xFF	; 255
    17b6:	fc 01       	movw	r30, r24
    17b8:	80 81       	ld	r24, Z
    17ba:	82 95       	swap	r24
    17bc:	81 70       	andi	r24, 0x01	; 1

000017be <.LM178>:
    17be:	95 2f       	mov	r25, r21
    17c0:	98 2b       	or	r25, r24

000017c2 <.LM179>:
    17c2:	8a 81       	ldd	r24, Y+2	; 0x02
    17c4:	89 2b       	or	r24, r25
    17c6:	8a 83       	std	Y+2, r24	; 0x02

000017c8 <.LM180>:
    17c8:	6a 81       	ldd	r22, Y+2	; 0x02
    17ca:	89 81       	ldd	r24, Y+1	; 0x01
    17cc:	0e 94 13 10 	call	0x2026	; 0x2026 <HLCD_voidSendCommand>
    17d0:	9e 01       	movw	r18, r28
    17d2:	27 5b       	subi	r18, 0xB7	; 183
    17d4:	3f 4f       	sbci	r19, 0xFF	; 255
    17d6:	80 e0       	ldi	r24, 0x00	; 0
    17d8:	90 e0       	ldi	r25, 0x00	; 0
    17da:	a0 e8       	ldi	r26, 0x80	; 128
    17dc:	bf e3       	ldi	r27, 0x3F	; 63
    17de:	f9 01       	movw	r30, r18
    17e0:	80 83       	st	Z, r24
    17e2:	91 83       	std	Z+1, r25	; 0x01
    17e4:	a2 83       	std	Z+2, r26	; 0x02
    17e6:	b3 83       	std	Z+3, r27	; 0x03

000017e8 <.LM181>:
    17e8:	8e 01       	movw	r16, r28
    17ea:	03 5b       	subi	r16, 0xB3	; 179
    17ec:	1f 4f       	sbci	r17, 0xFF	; 255
    17ee:	ce 01       	movw	r24, r28
    17f0:	87 5b       	subi	r24, 0xB7	; 183
    17f2:	9f 4f       	sbci	r25, 0xFF	; 255
    17f4:	20 e0       	ldi	r18, 0x00	; 0
    17f6:	30 e0       	ldi	r19, 0x00	; 0
    17f8:	4a ef       	ldi	r20, 0xFA	; 250
    17fa:	54 e4       	ldi	r21, 0x44	; 68
    17fc:	dc 01       	movw	r26, r24
    17fe:	6d 91       	ld	r22, X+
    1800:	7d 91       	ld	r23, X+
    1802:	8d 91       	ld	r24, X+
    1804:	9c 91       	ld	r25, X
    1806:	0e 94 6e 1d 	call	0x3adc	; 0x3adc <__mulsf3>
    180a:	cb 5d       	subi	r28, 0xDB	; 219
    180c:	de 4f       	sbci	r29, 0xFE	; 254
    180e:	68 83       	st	Y, r22
    1810:	79 83       	std	Y+1, r23	; 0x01
    1812:	8a 83       	std	Y+2, r24	; 0x02
    1814:	9b 83       	std	Y+3, r25	; 0x03
    1816:	c5 52       	subi	r28, 0x25	; 37
    1818:	d1 40       	sbci	r29, 0x01	; 1
    181a:	cb 5d       	subi	r28, 0xDB	; 219
    181c:	de 4f       	sbci	r29, 0xFE	; 254
    181e:	88 81       	ld	r24, Y
    1820:	99 81       	ldd	r25, Y+1	; 0x01
    1822:	aa 81       	ldd	r26, Y+2	; 0x02
    1824:	bb 81       	ldd	r27, Y+3	; 0x03
    1826:	c5 52       	subi	r28, 0x25	; 37
    1828:	d1 40       	sbci	r29, 0x01	; 1
    182a:	f8 01       	movw	r30, r16
    182c:	80 83       	st	Z, r24
    182e:	91 83       	std	Z+1, r25	; 0x01
    1830:	a2 83       	std	Z+2, r26	; 0x02
    1832:	b3 83       	std	Z+3, r27	; 0x03

00001834 <.LM182>:
    1834:	ce 01       	movw	r24, r28
    1836:	83 5b       	subi	r24, 0xB3	; 179
    1838:	9f 4f       	sbci	r25, 0xFF	; 255
    183a:	20 e0       	ldi	r18, 0x00	; 0
    183c:	30 e0       	ldi	r19, 0x00	; 0
    183e:	40 e8       	ldi	r20, 0x80	; 128
    1840:	5f e3       	ldi	r21, 0x3F	; 63
    1842:	dc 01       	movw	r26, r24
    1844:	6d 91       	ld	r22, X+
    1846:	7d 91       	ld	r23, X+
    1848:	8d 91       	ld	r24, X+
    184a:	9c 91       	ld	r25, X
    184c:	0e 94 11 1c 	call	0x3822	; 0x3822 <__cmpsf2>
    1850:	88 23       	and	r24, r24
    1852:	4c f4       	brge	.+18     	; 0x1866 <.L112>

00001854 <.LM183>:
    1854:	ce 01       	movw	r24, r28
    1856:	8f 5a       	subi	r24, 0xAF	; 175
    1858:	9f 4f       	sbci	r25, 0xFF	; 255
    185a:	21 e0       	ldi	r18, 0x01	; 1
    185c:	30 e0       	ldi	r19, 0x00	; 0
    185e:	fc 01       	movw	r30, r24
    1860:	31 83       	std	Z+1, r19	; 0x01
    1862:	20 83       	st	Z, r18
    1864:	a5 c0       	rjmp	.+330    	; 0x19b0 <.L71>

00001866 <.L112>:
    1866:	ce 01       	movw	r24, r28
    1868:	83 5b       	subi	r24, 0xB3	; 179
    186a:	9f 4f       	sbci	r25, 0xFF	; 255
    186c:	20 e0       	ldi	r18, 0x00	; 0
    186e:	3f ef       	ldi	r19, 0xFF	; 255
    1870:	4f e7       	ldi	r20, 0x7F	; 127
    1872:	57 e4       	ldi	r21, 0x47	; 71
    1874:	dc 01       	movw	r26, r24
    1876:	6d 91       	ld	r22, X+
    1878:	7d 91       	ld	r23, X+
    187a:	8d 91       	ld	r24, X+
    187c:	9c 91       	ld	r25, X
    187e:	0e 94 69 1d 	call	0x3ad2	; 0x3ad2 <__gesf2>
    1882:	88 23       	and	r24, r24
    1884:	09 f0       	breq	.+2      	; 0x1888 <L0^A>

00001886 <L0^A>:
    1886:	0c f4       	brge	.+2      	; 0x188a <.LM185>

00001888 <L0^A>:
    1888:	75 c0       	rjmp	.+234    	; 0x1974 <.L113>

0000188a <.LM185>:
    188a:	ce 01       	movw	r24, r28
    188c:	87 5b       	subi	r24, 0xB7	; 183
    188e:	9f 4f       	sbci	r25, 0xFF	; 255
    1890:	20 e0       	ldi	r18, 0x00	; 0
    1892:	30 e0       	ldi	r19, 0x00	; 0
    1894:	40 e2       	ldi	r20, 0x20	; 32
    1896:	51 e4       	ldi	r21, 0x41	; 65
    1898:	fc 01       	movw	r30, r24
    189a:	60 81       	ld	r22, Z
    189c:	71 81       	ldd	r23, Z+1	; 0x01
    189e:	82 81       	ldd	r24, Z+2	; 0x02
    18a0:	93 81       	ldd	r25, Z+3	; 0x03
    18a2:	0e 94 6e 1d 	call	0x3adc	; 0x3adc <__mulsf3>
    18a6:	c7 5d       	subi	r28, 0xD7	; 215
    18a8:	de 4f       	sbci	r29, 0xFE	; 254
    18aa:	68 83       	st	Y, r22
    18ac:	79 83       	std	Y+1, r23	; 0x01
    18ae:	8a 83       	std	Y+2, r24	; 0x02
    18b0:	9b 83       	std	Y+3, r25	; 0x03
    18b2:	c9 52       	subi	r28, 0x29	; 41
    18b4:	d1 40       	sbci	r29, 0x01	; 1
    18b6:	c7 5d       	subi	r28, 0xD7	; 215
    18b8:	de 4f       	sbci	r29, 0xFE	; 254
    18ba:	88 81       	ld	r24, Y
    18bc:	99 81       	ldd	r25, Y+1	; 0x01
    18be:	aa 81       	ldd	r26, Y+2	; 0x02
    18c0:	bb 81       	ldd	r27, Y+3	; 0x03
    18c2:	c9 52       	subi	r28, 0x29	; 41
    18c4:	d1 40       	sbci	r29, 0x01	; 1
    18c6:	cb 56       	subi	r28, 0x6B	; 107
    18c8:	df 4f       	sbci	r29, 0xFF	; 255
    18ca:	88 83       	st	Y, r24
    18cc:	99 83       	std	Y+1, r25	; 0x01
    18ce:	aa 83       	std	Y+2, r26	; 0x02
    18d0:	bb 83       	std	Y+3, r27	; 0x03
    18d2:	c5 59       	subi	r28, 0x95	; 149
    18d4:	d0 40       	sbci	r29, 0x00	; 0

000018d6 <.LM186>:
    18d6:	8e 01       	movw	r16, r28
    18d8:	0f 5a       	subi	r16, 0xAF	; 175
    18da:	1f 4f       	sbci	r17, 0xFF	; 255
    18dc:	cb 56       	subi	r28, 0x6B	; 107
    18de:	df 4f       	sbci	r29, 0xFF	; 255
    18e0:	68 81       	ld	r22, Y
    18e2:	79 81       	ldd	r23, Y+1	; 0x01
    18e4:	8a 81       	ldd	r24, Y+2	; 0x02
    18e6:	9b 81       	ldd	r25, Y+3	; 0x03
    18e8:	c5 59       	subi	r28, 0x95	; 149
    18ea:	d0 40       	sbci	r29, 0x00	; 0
    18ec:	0e 94 88 1c 	call	0x3910	; 0x3910 <__fixunssfsi>
    18f0:	c3 5d       	subi	r28, 0xD3	; 211
    18f2:	de 4f       	sbci	r29, 0xFE	; 254
    18f4:	68 83       	st	Y, r22
    18f6:	79 83       	std	Y+1, r23	; 0x01
    18f8:	8a 83       	std	Y+2, r24	; 0x02
    18fa:	9b 83       	std	Y+3, r25	; 0x03
    18fc:	cd 52       	subi	r28, 0x2D	; 45
    18fe:	d1 40       	sbci	r29, 0x01	; 1
    1900:	c3 5d       	subi	r28, 0xD3	; 211
    1902:	de 4f       	sbci	r29, 0xFE	; 254
    1904:	e8 81       	ld	r30, Y
    1906:	f9 81       	ldd	r31, Y+1	; 0x01
    1908:	cd 52       	subi	r28, 0x2D	; 45
    190a:	d1 40       	sbci	r29, 0x01	; 1
    190c:	d8 01       	movw	r26, r16
    190e:	11 96       	adiw	r26, 0x01	; 1
    1910:	fc 93       	st	X, r31
    1912:	ee 93       	st	-X, r30

00001914 <.LM187>:
    1914:	26 c0       	rjmp	.+76     	; 0x1962 <.L74>

00001916 <.L75>:
    1916:	ce 01       	movw	r24, r28
    1918:	8d 5a       	subi	r24, 0xAD	; 173
    191a:	9f 4f       	sbci	r25, 0xFF	; 255
    191c:	28 ec       	ldi	r18, 0xC8	; 200
    191e:	30 e0       	ldi	r19, 0x00	; 0
    1920:	dc 01       	movw	r26, r24
    1922:	2d 93       	st	X+, r18
    1924:	3c 93       	st	X, r19

00001926 <.LM188>:
    1926:	ce 01       	movw	r24, r28
    1928:	8d 5a       	subi	r24, 0xAD	; 173
    192a:	9f 4f       	sbci	r25, 0xFF	; 255
    192c:	fc 01       	movw	r30, r24
    192e:	80 81       	ld	r24, Z
    1930:	91 81       	ldd	r25, Z+1	; 0x01

00001932 <.L1^B17>:
    1932:	01 97       	sbiw	r24, 0x01	; 1
    1934:	f1 f7       	brne	.-4      	; 0x1932 <.L1^B17>
    1936:	9e 01       	movw	r18, r28
    1938:	2d 5a       	subi	r18, 0xAD	; 173
    193a:	3f 4f       	sbci	r19, 0xFF	; 255
    193c:	d9 01       	movw	r26, r18
    193e:	8d 93       	st	X+, r24
    1940:	9c 93       	st	X, r25

00001942 <.LM189>:
	...

00001944 <.LM190>:
    1944:	ce 01       	movw	r24, r28
    1946:	8f 5a       	subi	r24, 0xAF	; 175
    1948:	9f 4f       	sbci	r25, 0xFF	; 255
    194a:	9e 01       	movw	r18, r28
    194c:	2f 5a       	subi	r18, 0xAF	; 175
    194e:	3f 4f       	sbci	r19, 0xFF	; 255
    1950:	f9 01       	movw	r30, r18
    1952:	20 81       	ld	r18, Z
    1954:	31 81       	ldd	r19, Z+1	; 0x01
    1956:	21 50       	subi	r18, 0x01	; 1
    1958:	31 09       	sbc	r19, r1
    195a:	dc 01       	movw	r26, r24
    195c:	11 96       	adiw	r26, 0x01	; 1
    195e:	3c 93       	st	X, r19
    1960:	2e 93       	st	-X, r18

00001962 <.L74>:
    1962:	ce 01       	movw	r24, r28
    1964:	8f 5a       	subi	r24, 0xAF	; 175
    1966:	9f 4f       	sbci	r25, 0xFF	; 255
    1968:	fc 01       	movw	r30, r24
    196a:	80 81       	ld	r24, Z
    196c:	91 81       	ldd	r25, Z+1	; 0x01
    196e:	00 97       	sbiw	r24, 0x00	; 0
    1970:	91 f6       	brne	.-92     	; 0x1916 <.L75>

00001972 <.LM192>:
    1972:	3a c0       	rjmp	.+116    	; 0x19e8 <.L44>

00001974 <.L113>:
    1974:	8e 01       	movw	r16, r28
    1976:	0f 5a       	subi	r16, 0xAF	; 175
    1978:	1f 4f       	sbci	r17, 0xFF	; 255
    197a:	ce 01       	movw	r24, r28
    197c:	83 5b       	subi	r24, 0xB3	; 179
    197e:	9f 4f       	sbci	r25, 0xFF	; 255
    1980:	dc 01       	movw	r26, r24
    1982:	6d 91       	ld	r22, X+
    1984:	7d 91       	ld	r23, X+
    1986:	8d 91       	ld	r24, X+
    1988:	9c 91       	ld	r25, X
    198a:	0e 94 88 1c 	call	0x3910	; 0x3910 <__fixunssfsi>
    198e:	cf 5c       	subi	r28, 0xCF	; 207
    1990:	de 4f       	sbci	r29, 0xFE	; 254
    1992:	68 83       	st	Y, r22
    1994:	79 83       	std	Y+1, r23	; 0x01
    1996:	8a 83       	std	Y+2, r24	; 0x02
    1998:	9b 83       	std	Y+3, r25	; 0x03
    199a:	c1 53       	subi	r28, 0x31	; 49
    199c:	d1 40       	sbci	r29, 0x01	; 1
    199e:	cf 5c       	subi	r28, 0xCF	; 207
    19a0:	de 4f       	sbci	r29, 0xFE	; 254
    19a2:	88 81       	ld	r24, Y
    19a4:	99 81       	ldd	r25, Y+1	; 0x01
    19a6:	c1 53       	subi	r28, 0x31	; 49
    19a8:	d1 40       	sbci	r29, 0x01	; 1
    19aa:	f8 01       	movw	r30, r16
    19ac:	91 83       	std	Z+1, r25	; 0x01
    19ae:	80 83       	st	Z, r24

000019b0 <.L71>:
    19b0:	ce 01       	movw	r24, r28
    19b2:	8b 5a       	subi	r24, 0xAB	; 171
    19b4:	9f 4f       	sbci	r25, 0xFF	; 255
    19b6:	9e 01       	movw	r18, r28
    19b8:	2f 5a       	subi	r18, 0xAF	; 175
    19ba:	3f 4f       	sbci	r19, 0xFF	; 255
    19bc:	d9 01       	movw	r26, r18
    19be:	2d 91       	ld	r18, X+
    19c0:	3c 91       	ld	r19, X
    19c2:	fc 01       	movw	r30, r24
    19c4:	31 83       	std	Z+1, r19	; 0x01
    19c6:	20 83       	st	Z, r18

000019c8 <.LM194>:
    19c8:	ce 01       	movw	r24, r28
    19ca:	8b 5a       	subi	r24, 0xAB	; 171
    19cc:	9f 4f       	sbci	r25, 0xFF	; 255
    19ce:	dc 01       	movw	r26, r24
    19d0:	8d 91       	ld	r24, X+
    19d2:	9c 91       	ld	r25, X
    19d4:	11 97       	sbiw	r26, 0x01	; 1

000019d6 <.L1^B18>:
    19d6:	01 97       	sbiw	r24, 0x01	; 1
    19d8:	f1 f7       	brne	.-4      	; 0x19d6 <.L1^B18>
    19da:	9e 01       	movw	r18, r28
    19dc:	2b 5a       	subi	r18, 0xAB	; 171
    19de:	3f 4f       	sbci	r19, 0xFF	; 255
    19e0:	f9 01       	movw	r30, r18
    19e2:	91 83       	std	Z+1, r25	; 0x01
    19e4:	80 83       	st	Z, r24

000019e6 <.LM195>:
	...

000019e8 <.L44>:
    19e8:	89 81       	ldd	r24, Y+1	; 0x01
    19ea:	8f 5f       	subi	r24, 0xFF	; 255
    19ec:	89 83       	std	Y+1, r24	; 0x01

000019ee <.L2>:
    19ee:	89 81       	ldd	r24, Y+1	; 0x01
    19f0:	88 23       	and	r24, r24
    19f2:	11 f4       	brne	.+4      	; 0x19f8 <.LM198>

000019f4 <L0^A>:
    19f4:	0c 94 a1 03 	jmp	0x742	; 0x742 <.L77>

000019f8 <.LM198>:
    19f8:	00 00       	nop
    19fa:	00 00       	nop
    19fc:	cc 5c       	subi	r28, 0xCC	; 204
    19fe:	de 4f       	sbci	r29, 0xFE	; 254
    1a00:	0f b6       	in	r0, 0x3f	; 63
    1a02:	f8 94       	cli
    1a04:	de bf       	out	0x3e, r29	; 62
    1a06:	0f be       	out	0x3f, r0	; 63
    1a08:	cd bf       	out	0x3d, r28	; 61
    1a0a:	df 91       	pop	r29
    1a0c:	cf 91       	pop	r28
    1a0e:	1f 91       	pop	r17
    1a10:	0f 91       	pop	r16
    1a12:	08 95       	ret

00001a14 <HLCD_voidSendData>:
    1a14:	cf 93       	push	r28
    1a16:	df 93       	push	r29
    1a18:	cd b7       	in	r28, 0x3d	; 61
    1a1a:	de b7       	in	r29, 0x3e	; 62
    1a1c:	c9 56       	subi	r28, 0x69	; 105
    1a1e:	d1 09       	sbc	r29, r1
    1a20:	0f b6       	in	r0, 0x3f	; 63
    1a22:	f8 94       	cli
    1a24:	de bf       	out	0x3e, r29	; 62
    1a26:	0f be       	out	0x3f, r0	; 63
    1a28:	cd bf       	out	0x3d, r28	; 61
    1a2a:	8c a7       	std	Y+44, r24	; 0x2c
    1a2c:	6d a7       	std	Y+45, r22	; 0x2d

00001a2e <.LM200>:
    1a2e:	19 82       	std	Y+1, r1	; 0x01

00001a30 <.LM201>:
    1a30:	8c a5       	ldd	r24, Y+44	; 0x2c
    1a32:	28 2f       	mov	r18, r24
    1a34:	30 e0       	ldi	r19, 0x00	; 0
    1a36:	4d e0       	ldi	r20, 0x0D	; 13
    1a38:	42 9f       	mul	r20, r18
    1a3a:	c0 01       	movw	r24, r0
    1a3c:	43 9f       	mul	r20, r19
    1a3e:	90 0d       	add	r25, r0
    1a40:	11 24       	eor	r1, r1
    1a42:	80 58       	subi	r24, 0x80	; 128
    1a44:	9f 4f       	sbci	r25, 0xFF	; 255
    1a46:	dc 01       	movw	r26, r24
    1a48:	8c 91       	ld	r24, X
    1a4a:	61 e0       	ldi	r22, 0x01	; 1
    1a4c:	0e 94 79 00 	call	0xf2	; 0xf2 <MDIO_enuSetPinValue>

00001a50 <.LM202>:
    1a50:	8c a5       	ldd	r24, Y+44	; 0x2c
    1a52:	28 2f       	mov	r18, r24
    1a54:	30 e0       	ldi	r19, 0x00	; 0
    1a56:	4d e0       	ldi	r20, 0x0D	; 13
    1a58:	42 9f       	mul	r20, r18
    1a5a:	c0 01       	movw	r24, r0
    1a5c:	43 9f       	mul	r20, r19
    1a5e:	90 0d       	add	r25, r0
    1a60:	11 24       	eor	r1, r1
    1a62:	8f 57       	subi	r24, 0x7F	; 127
    1a64:	9f 4f       	sbci	r25, 0xFF	; 255
    1a66:	fc 01       	movw	r30, r24
    1a68:	80 81       	ld	r24, Z
    1a6a:	60 e0       	ldi	r22, 0x00	; 0
    1a6c:	0e 94 79 00 	call	0xf2	; 0xf2 <MDIO_enuSetPinValue>

00001a70 <.LM203>:
    1a70:	8c a5       	ldd	r24, Y+44	; 0x2c
    1a72:	28 2f       	mov	r18, r24
    1a74:	30 e0       	ldi	r19, 0x00	; 0
    1a76:	4d e0       	ldi	r20, 0x0D	; 13
    1a78:	42 9f       	mul	r20, r18
    1a7a:	c0 01       	movw	r24, r0
    1a7c:	43 9f       	mul	r20, r19
    1a7e:	90 0d       	add	r25, r0
    1a80:	11 24       	eor	r1, r1
    1a82:	8d 57       	subi	r24, 0x7D	; 125
    1a84:	9f 4f       	sbci	r25, 0xFF	; 255
    1a86:	dc 01       	movw	r26, r24
    1a88:	8c 91       	ld	r24, X

00001a8a <.LM204>:
    1a8a:	81 30       	cpi	r24, 0x01	; 1
    1a8c:	09 f0       	breq	.+2      	; 0x1a90 <.LM205>

00001a8e <L0^A>:
    1a8e:	e8 c0       	rjmp	.+464    	; 0x1c60 <.L115>

00001a90 <.LM205>:
    1a90:	19 82       	std	Y+1, r1	; 0x01

00001a92 <.LM206>:
    1a92:	25 c0       	rjmp	.+74     	; 0x1ade <.L116>

00001a94 <.L117>:
    1a94:	8d a5       	ldd	r24, Y+45	; 0x2d
    1a96:	88 2f       	mov	r24, r24
    1a98:	90 e0       	ldi	r25, 0x00	; 0
    1a9a:	29 81       	ldd	r18, Y+1	; 0x01
    1a9c:	22 2f       	mov	r18, r18
    1a9e:	30 e0       	ldi	r19, 0x00	; 0
    1aa0:	02 c0       	rjmp	.+4      	; 0x1aa6 <.L2^B1>

00001aa2 <.L1^B19>:
    1aa2:	95 95       	asr	r25
    1aa4:	87 95       	ror	r24

00001aa6 <.L2^B1>:
    1aa6:	2a 95       	dec	r18
    1aa8:	e2 f7       	brpl	.-8      	; 0x1aa2 <.L1^B19>

00001aaa <.LM208>:
    1aaa:	78 2f       	mov	r23, r24
    1aac:	71 70       	andi	r23, 0x01	; 1
    1aae:	8c a5       	ldd	r24, Y+44	; 0x2c
    1ab0:	48 2f       	mov	r20, r24
    1ab2:	50 e0       	ldi	r21, 0x00	; 0
    1ab4:	89 81       	ldd	r24, Y+1	; 0x01
    1ab6:	88 2f       	mov	r24, r24
    1ab8:	90 e0       	ldi	r25, 0x00	; 0
    1aba:	6d e0       	ldi	r22, 0x0D	; 13
    1abc:	64 9f       	mul	r22, r20
    1abe:	90 01       	movw	r18, r0
    1ac0:	65 9f       	mul	r22, r21
    1ac2:	30 0d       	add	r19, r0
    1ac4:	11 24       	eor	r1, r1
    1ac6:	82 0f       	add	r24, r18
    1ac8:	93 1f       	adc	r25, r19
    1aca:	88 58       	subi	r24, 0x88	; 136
    1acc:	9f 4f       	sbci	r25, 0xFF	; 255
    1ace:	fc 01       	movw	r30, r24
    1ad0:	80 81       	ld	r24, Z
    1ad2:	67 2f       	mov	r22, r23
    1ad4:	0e 94 79 00 	call	0xf2	; 0xf2 <MDIO_enuSetPinValue>

00001ad8 <.LM209>:
    1ad8:	89 81       	ldd	r24, Y+1	; 0x01
    1ada:	8f 5f       	subi	r24, 0xFF	; 255
    1adc:	89 83       	std	Y+1, r24	; 0x01

00001ade <.L116>:
    1ade:	89 81       	ldd	r24, Y+1	; 0x01
    1ae0:	87 30       	cpi	r24, 0x07	; 7
    1ae2:	c1 f2       	breq	.-80     	; 0x1a94 <.L117>
    1ae4:	b8 f2       	brcs	.-82     	; 0x1a94 <.L117>

00001ae6 <.LM211>:
    1ae6:	8c a5       	ldd	r24, Y+44	; 0x2c
    1ae8:	28 2f       	mov	r18, r24
    1aea:	30 e0       	ldi	r19, 0x00	; 0
    1aec:	4d e0       	ldi	r20, 0x0D	; 13
    1aee:	42 9f       	mul	r20, r18
    1af0:	c0 01       	movw	r24, r0
    1af2:	43 9f       	mul	r20, r19
    1af4:	90 0d       	add	r25, r0
    1af6:	11 24       	eor	r1, r1
    1af8:	8e 57       	subi	r24, 0x7E	; 126
    1afa:	9f 4f       	sbci	r25, 0xFF	; 255
    1afc:	dc 01       	movw	r26, r24
    1afe:	8c 91       	ld	r24, X
    1b00:	61 e0       	ldi	r22, 0x01	; 1
    1b02:	0e 94 79 00 	call	0xf2	; 0xf2 <MDIO_enuSetPinValue>
    1b06:	80 e0       	ldi	r24, 0x00	; 0
    1b08:	90 e0       	ldi	r25, 0x00	; 0
    1b0a:	a0 e0       	ldi	r26, 0x00	; 0
    1b0c:	b0 e4       	ldi	r27, 0x40	; 64
    1b0e:	8a 83       	std	Y+2, r24	; 0x02
    1b10:	9b 83       	std	Y+3, r25	; 0x03
    1b12:	ac 83       	std	Y+4, r26	; 0x04
    1b14:	bd 83       	std	Y+5, r27	; 0x05

00001b16 <.LM212>:
    1b16:	20 e0       	ldi	r18, 0x00	; 0
    1b18:	30 e0       	ldi	r19, 0x00	; 0
    1b1a:	4a ef       	ldi	r20, 0xFA	; 250
    1b1c:	54 e4       	ldi	r21, 0x44	; 68
    1b1e:	6a 81       	ldd	r22, Y+2	; 0x02
    1b20:	7b 81       	ldd	r23, Y+3	; 0x03
    1b22:	8c 81       	ldd	r24, Y+4	; 0x04
    1b24:	9d 81       	ldd	r25, Y+5	; 0x05
    1b26:	0e 94 6e 1d 	call	0x3adc	; 0x3adc <__mulsf3>
    1b2a:	6a af       	std	Y+58, r22	; 0x3a
    1b2c:	7b af       	std	Y+59, r23	; 0x3b
    1b2e:	8c af       	std	Y+60, r24	; 0x3c
    1b30:	9d af       	std	Y+61, r25	; 0x3d
    1b32:	8a ad       	ldd	r24, Y+58	; 0x3a
    1b34:	9b ad       	ldd	r25, Y+59	; 0x3b
    1b36:	ac ad       	ldd	r26, Y+60	; 0x3c
    1b38:	bd ad       	ldd	r27, Y+61	; 0x3d
    1b3a:	8e 83       	std	Y+6, r24	; 0x06
    1b3c:	9f 83       	std	Y+7, r25	; 0x07
    1b3e:	a8 87       	std	Y+8, r26	; 0x08
    1b40:	b9 87       	std	Y+9, r27	; 0x09

00001b42 <.LM213>:
    1b42:	20 e0       	ldi	r18, 0x00	; 0
    1b44:	30 e0       	ldi	r19, 0x00	; 0
    1b46:	40 e8       	ldi	r20, 0x80	; 128
    1b48:	5f e3       	ldi	r21, 0x3F	; 63
    1b4a:	6e 81       	ldd	r22, Y+6	; 0x06
    1b4c:	7f 81       	ldd	r23, Y+7	; 0x07
    1b4e:	88 85       	ldd	r24, Y+8	; 0x08
    1b50:	99 85       	ldd	r25, Y+9	; 0x09
    1b52:	0e 94 11 1c 	call	0x3822	; 0x3822 <__cmpsf2>
    1b56:	88 23       	and	r24, r24
    1b58:	2c f4       	brge	.+10     	; 0x1b64 <.L153>

00001b5a <.LM214>:
    1b5a:	81 e0       	ldi	r24, 0x01	; 1
    1b5c:	90 e0       	ldi	r25, 0x00	; 0
    1b5e:	9b 87       	std	Y+11, r25	; 0x0b
    1b60:	8a 87       	std	Y+10, r24	; 0x0a
    1b62:	62 c0       	rjmp	.+196    	; 0x1c28 <.L120>

00001b64 <.L153>:
    1b64:	20 e0       	ldi	r18, 0x00	; 0
    1b66:	3f ef       	ldi	r19, 0xFF	; 255
    1b68:	4f e7       	ldi	r20, 0x7F	; 127
    1b6a:	57 e4       	ldi	r21, 0x47	; 71
    1b6c:	6e 81       	ldd	r22, Y+6	; 0x06
    1b6e:	7f 81       	ldd	r23, Y+7	; 0x07
    1b70:	88 85       	ldd	r24, Y+8	; 0x08
    1b72:	99 85       	ldd	r25, Y+9	; 0x09
    1b74:	0e 94 69 1d 	call	0x3ad2	; 0x3ad2 <__gesf2>
    1b78:	88 23       	and	r24, r24
    1b7a:	09 f0       	breq	.+2      	; 0x1b7e <L0^A>

00001b7c <L0^A>:
    1b7c:	0c f4       	brge	.+2      	; 0x1b80 <.LM216>

00001b7e <L0^A>:
    1b7e:	42 c0       	rjmp	.+132    	; 0x1c04 <.L154>

00001b80 <.LM216>:
    1b80:	20 e0       	ldi	r18, 0x00	; 0
    1b82:	30 e0       	ldi	r19, 0x00	; 0
    1b84:	40 e2       	ldi	r20, 0x20	; 32
    1b86:	51 e4       	ldi	r21, 0x41	; 65
    1b88:	6a 81       	ldd	r22, Y+2	; 0x02
    1b8a:	7b 81       	ldd	r23, Y+3	; 0x03
    1b8c:	8c 81       	ldd	r24, Y+4	; 0x04
    1b8e:	9d 81       	ldd	r25, Y+5	; 0x05
    1b90:	0e 94 6e 1d 	call	0x3adc	; 0x3adc <__mulsf3>
    1b94:	22 96       	adiw	r28, 0x02	; 2
    1b96:	6c af       	std	Y+60, r22	; 0x3c
    1b98:	7d af       	std	Y+61, r23	; 0x3d
    1b9a:	8e af       	std	Y+62, r24	; 0x3e
    1b9c:	9f af       	std	Y+63, r25	; 0x3f
    1b9e:	22 97       	sbiw	r28, 0x02	; 2
    1ba0:	22 96       	adiw	r28, 0x02	; 2
    1ba2:	8c ad       	ldd	r24, Y+60	; 0x3c
    1ba4:	9d ad       	ldd	r25, Y+61	; 0x3d
    1ba6:	ae ad       	ldd	r26, Y+62	; 0x3e
    1ba8:	bf ad       	ldd	r27, Y+63	; 0x3f
    1baa:	22 97       	sbiw	r28, 0x02	; 2
    1bac:	8e a7       	std	Y+46, r24	; 0x2e
    1bae:	9f a7       	std	Y+47, r25	; 0x2f
    1bb0:	a8 ab       	std	Y+48, r26	; 0x30
    1bb2:	b9 ab       	std	Y+49, r27	; 0x31

00001bb4 <.LM217>:
    1bb4:	6e a5       	ldd	r22, Y+46	; 0x2e
    1bb6:	7f a5       	ldd	r23, Y+47	; 0x2f
    1bb8:	88 a9       	ldd	r24, Y+48	; 0x30
    1bba:	99 a9       	ldd	r25, Y+49	; 0x31
    1bbc:	0e 94 88 1c 	call	0x3910	; 0x3910 <__fixunssfsi>
    1bc0:	26 96       	adiw	r28, 0x06	; 6
    1bc2:	6c af       	std	Y+60, r22	; 0x3c
    1bc4:	7d af       	std	Y+61, r23	; 0x3d
    1bc6:	8e af       	std	Y+62, r24	; 0x3e
    1bc8:	9f af       	std	Y+63, r25	; 0x3f
    1bca:	26 97       	sbiw	r28, 0x06	; 6
    1bcc:	24 96       	adiw	r28, 0x04	; 4
    1bce:	ae ad       	ldd	r26, Y+62	; 0x3e
    1bd0:	bf ad       	ldd	r27, Y+63	; 0x3f
    1bd2:	24 97       	sbiw	r28, 0x04	; 4
    1bd4:	bb 87       	std	Y+11, r27	; 0x0b
    1bd6:	aa 87       	std	Y+10, r26	; 0x0a

00001bd8 <.LM218>:
    1bd8:	10 c0       	rjmp	.+32     	; 0x1bfa <.L123>

00001bda <.L124>:
    1bda:	88 ec       	ldi	r24, 0xC8	; 200
    1bdc:	90 e0       	ldi	r25, 0x00	; 0
    1bde:	9d 87       	std	Y+13, r25	; 0x0d
    1be0:	8c 87       	std	Y+12, r24	; 0x0c

00001be2 <.LM219>:
    1be2:	8c 85       	ldd	r24, Y+12	; 0x0c
    1be4:	9d 85       	ldd	r25, Y+13	; 0x0d

00001be6 <.L1^B20>:
    1be6:	01 97       	sbiw	r24, 0x01	; 1
    1be8:	f1 f7       	brne	.-4      	; 0x1be6 <.L1^B20>
    1bea:	9d 87       	std	Y+13, r25	; 0x0d
    1bec:	8c 87       	std	Y+12, r24	; 0x0c

00001bee <.LM220>:
	...

00001bf0 <.LM221>:
    1bf0:	8a 85       	ldd	r24, Y+10	; 0x0a
    1bf2:	9b 85       	ldd	r25, Y+11	; 0x0b
    1bf4:	01 97       	sbiw	r24, 0x01	; 1
    1bf6:	9b 87       	std	Y+11, r25	; 0x0b
    1bf8:	8a 87       	std	Y+10, r24	; 0x0a

00001bfa <.L123>:
    1bfa:	8a 85       	ldd	r24, Y+10	; 0x0a
    1bfc:	9b 85       	ldd	r25, Y+11	; 0x0b
    1bfe:	00 97       	sbiw	r24, 0x00	; 0
    1c00:	61 f7       	brne	.-40     	; 0x1bda <.L124>

00001c02 <.LM223>:
    1c02:	1d c0       	rjmp	.+58     	; 0x1c3e <.L125>

00001c04 <.L154>:
    1c04:	6e 81       	ldd	r22, Y+6	; 0x06
    1c06:	7f 81       	ldd	r23, Y+7	; 0x07
    1c08:	88 85       	ldd	r24, Y+8	; 0x08
    1c0a:	99 85       	ldd	r25, Y+9	; 0x09
    1c0c:	0e 94 88 1c 	call	0x3910	; 0x3910 <__fixunssfsi>
    1c10:	2a 96       	adiw	r28, 0x0a	; 10
    1c12:	6c af       	std	Y+60, r22	; 0x3c
    1c14:	7d af       	std	Y+61, r23	; 0x3d
    1c16:	8e af       	std	Y+62, r24	; 0x3e
    1c18:	9f af       	std	Y+63, r25	; 0x3f
    1c1a:	2a 97       	sbiw	r28, 0x0a	; 10
    1c1c:	28 96       	adiw	r28, 0x08	; 8
    1c1e:	ee ad       	ldd	r30, Y+62	; 0x3e
    1c20:	ff ad       	ldd	r31, Y+63	; 0x3f
    1c22:	28 97       	sbiw	r28, 0x08	; 8
    1c24:	fb 87       	std	Y+11, r31	; 0x0b
    1c26:	ea 87       	std	Y+10, r30	; 0x0a

00001c28 <.L120>:
    1c28:	8a 85       	ldd	r24, Y+10	; 0x0a
    1c2a:	9b 85       	ldd	r25, Y+11	; 0x0b
    1c2c:	9f 87       	std	Y+15, r25	; 0x0f
    1c2e:	8e 87       	std	Y+14, r24	; 0x0e

00001c30 <.LM225>:
    1c30:	8e 85       	ldd	r24, Y+14	; 0x0e
    1c32:	9f 85       	ldd	r25, Y+15	; 0x0f

00001c34 <.L1^B21>:
    1c34:	01 97       	sbiw	r24, 0x01	; 1
    1c36:	f1 f7       	brne	.-4      	; 0x1c34 <.L1^B21>
    1c38:	9f 87       	std	Y+15, r25	; 0x0f
    1c3a:	8e 87       	std	Y+14, r24	; 0x0e

00001c3c <.LM226>:
	...

00001c3e <.L125>:
    1c3e:	8c a5       	ldd	r24, Y+44	; 0x2c
    1c40:	28 2f       	mov	r18, r24
    1c42:	30 e0       	ldi	r19, 0x00	; 0
    1c44:	4d e0       	ldi	r20, 0x0D	; 13
    1c46:	42 9f       	mul	r20, r18
    1c48:	c0 01       	movw	r24, r0
    1c4a:	43 9f       	mul	r20, r19
    1c4c:	90 0d       	add	r25, r0
    1c4e:	11 24       	eor	r1, r1
    1c50:	8e 57       	subi	r24, 0x7E	; 126
    1c52:	9f 4f       	sbci	r25, 0xFF	; 255
    1c54:	dc 01       	movw	r26, r24
    1c56:	8c 91       	ld	r24, X
    1c58:	60 e0       	ldi	r22, 0x00	; 0
    1c5a:	0e 94 79 00 	call	0xf2	; 0xf2 <MDIO_enuSetPinValue>

00001c5e <.LM228>:
    1c5e:	d8 c1       	rjmp	.+944    	; 0x2010 <.L159>

00001c60 <.L115>:
    1c60:	19 82       	std	Y+1, r1	; 0x01

00001c62 <.LM230>:
    1c62:	27 c0       	rjmp	.+78     	; 0x1cb2 <.L127>

00001c64 <.L128>:
    1c64:	8d a5       	ldd	r24, Y+45	; 0x2d
    1c66:	82 95       	swap	r24
    1c68:	8f 70       	andi	r24, 0x0F	; 15
    1c6a:	88 2f       	mov	r24, r24
    1c6c:	90 e0       	ldi	r25, 0x00	; 0
    1c6e:	29 81       	ldd	r18, Y+1	; 0x01
    1c70:	22 2f       	mov	r18, r18
    1c72:	30 e0       	ldi	r19, 0x00	; 0
    1c74:	02 c0       	rjmp	.+4      	; 0x1c7a <.L2^B2>

00001c76 <.L1^B22>:
    1c76:	95 95       	asr	r25
    1c78:	87 95       	ror	r24

00001c7a <.L2^B2>:
    1c7a:	2a 95       	dec	r18
    1c7c:	e2 f7       	brpl	.-8      	; 0x1c76 <.L1^B22>

00001c7e <.LM232>:
    1c7e:	78 2f       	mov	r23, r24
    1c80:	71 70       	andi	r23, 0x01	; 1
    1c82:	8c a5       	ldd	r24, Y+44	; 0x2c
    1c84:	48 2f       	mov	r20, r24
    1c86:	50 e0       	ldi	r21, 0x00	; 0
    1c88:	89 81       	ldd	r24, Y+1	; 0x01
    1c8a:	88 2f       	mov	r24, r24
    1c8c:	90 e0       	ldi	r25, 0x00	; 0
    1c8e:	6d e0       	ldi	r22, 0x0D	; 13
    1c90:	64 9f       	mul	r22, r20
    1c92:	90 01       	movw	r18, r0
    1c94:	65 9f       	mul	r22, r21
    1c96:	30 0d       	add	r19, r0
    1c98:	11 24       	eor	r1, r1
    1c9a:	82 0f       	add	r24, r18
    1c9c:	93 1f       	adc	r25, r19
    1c9e:	88 58       	subi	r24, 0x88	; 136
    1ca0:	9f 4f       	sbci	r25, 0xFF	; 255
    1ca2:	fc 01       	movw	r30, r24
    1ca4:	80 81       	ld	r24, Z
    1ca6:	67 2f       	mov	r22, r23
    1ca8:	0e 94 79 00 	call	0xf2	; 0xf2 <MDIO_enuSetPinValue>

00001cac <.LM233>:
    1cac:	89 81       	ldd	r24, Y+1	; 0x01
    1cae:	8f 5f       	subi	r24, 0xFF	; 255
    1cb0:	89 83       	std	Y+1, r24	; 0x01

00001cb2 <.L127>:
    1cb2:	89 81       	ldd	r24, Y+1	; 0x01
    1cb4:	83 30       	cpi	r24, 0x03	; 3
    1cb6:	b1 f2       	breq	.-84     	; 0x1c64 <.L128>
    1cb8:	a8 f2       	brcs	.-86     	; 0x1c64 <.L128>

00001cba <.LM235>:
    1cba:	8c a5       	ldd	r24, Y+44	; 0x2c
    1cbc:	28 2f       	mov	r18, r24
    1cbe:	30 e0       	ldi	r19, 0x00	; 0
    1cc0:	4d e0       	ldi	r20, 0x0D	; 13
    1cc2:	42 9f       	mul	r20, r18
    1cc4:	c0 01       	movw	r24, r0
    1cc6:	43 9f       	mul	r20, r19
    1cc8:	90 0d       	add	r25, r0
    1cca:	11 24       	eor	r1, r1
    1ccc:	8e 57       	subi	r24, 0x7E	; 126
    1cce:	9f 4f       	sbci	r25, 0xFF	; 255
    1cd0:	dc 01       	movw	r26, r24
    1cd2:	8c 91       	ld	r24, X
    1cd4:	61 e0       	ldi	r22, 0x01	; 1
    1cd6:	0e 94 79 00 	call	0xf2	; 0xf2 <MDIO_enuSetPinValue>
    1cda:	80 e0       	ldi	r24, 0x00	; 0
    1cdc:	90 e0       	ldi	r25, 0x00	; 0
    1cde:	a0 e0       	ldi	r26, 0x00	; 0
    1ce0:	b0 e4       	ldi	r27, 0x40	; 64
    1ce2:	88 8b       	std	Y+16, r24	; 0x10
    1ce4:	99 8b       	std	Y+17, r25	; 0x11
    1ce6:	aa 8b       	std	Y+18, r26	; 0x12
    1ce8:	bb 8b       	std	Y+19, r27	; 0x13

00001cea <.LM236>:
    1cea:	20 e0       	ldi	r18, 0x00	; 0
    1cec:	30 e0       	ldi	r19, 0x00	; 0
    1cee:	4a ef       	ldi	r20, 0xFA	; 250
    1cf0:	54 e4       	ldi	r21, 0x44	; 68
    1cf2:	68 89       	ldd	r22, Y+16	; 0x10
    1cf4:	79 89       	ldd	r23, Y+17	; 0x11
    1cf6:	8a 89       	ldd	r24, Y+18	; 0x12
    1cf8:	9b 89       	ldd	r25, Y+19	; 0x13
    1cfa:	0e 94 6e 1d 	call	0x3adc	; 0x3adc <__mulsf3>
    1cfe:	2e 96       	adiw	r28, 0x0e	; 14
    1d00:	6c af       	std	Y+60, r22	; 0x3c
    1d02:	7d af       	std	Y+61, r23	; 0x3d
    1d04:	8e af       	std	Y+62, r24	; 0x3e
    1d06:	9f af       	std	Y+63, r25	; 0x3f
    1d08:	2e 97       	sbiw	r28, 0x0e	; 14
    1d0a:	2e 96       	adiw	r28, 0x0e	; 14
    1d0c:	8c ad       	ldd	r24, Y+60	; 0x3c
    1d0e:	9d ad       	ldd	r25, Y+61	; 0x3d
    1d10:	ae ad       	ldd	r26, Y+62	; 0x3e
    1d12:	bf ad       	ldd	r27, Y+63	; 0x3f
    1d14:	2e 97       	sbiw	r28, 0x0e	; 14
    1d16:	8c 8b       	std	Y+20, r24	; 0x14
    1d18:	9d 8b       	std	Y+21, r25	; 0x15
    1d1a:	ae 8b       	std	Y+22, r26	; 0x16
    1d1c:	bf 8b       	std	Y+23, r27	; 0x17

00001d1e <.LM237>:
    1d1e:	20 e0       	ldi	r18, 0x00	; 0
    1d20:	30 e0       	ldi	r19, 0x00	; 0
    1d22:	40 e8       	ldi	r20, 0x80	; 128
    1d24:	5f e3       	ldi	r21, 0x3F	; 63
    1d26:	6c 89       	ldd	r22, Y+20	; 0x14
    1d28:	7d 89       	ldd	r23, Y+21	; 0x15
    1d2a:	8e 89       	ldd	r24, Y+22	; 0x16
    1d2c:	9f 89       	ldd	r25, Y+23	; 0x17
    1d2e:	0e 94 11 1c 	call	0x3822	; 0x3822 <__cmpsf2>
    1d32:	88 23       	and	r24, r24
    1d34:	2c f4       	brge	.+10     	; 0x1d40 <.L155>

00001d36 <.LM238>:
    1d36:	81 e0       	ldi	r24, 0x01	; 1
    1d38:	90 e0       	ldi	r25, 0x00	; 0
    1d3a:	99 8f       	std	Y+25, r25	; 0x19
    1d3c:	88 8f       	std	Y+24, r24	; 0x18
    1d3e:	62 c0       	rjmp	.+196    	; 0x1e04 <.L131>

00001d40 <.L155>:
    1d40:	20 e0       	ldi	r18, 0x00	; 0
    1d42:	3f ef       	ldi	r19, 0xFF	; 255
    1d44:	4f e7       	ldi	r20, 0x7F	; 127
    1d46:	57 e4       	ldi	r21, 0x47	; 71
    1d48:	6c 89       	ldd	r22, Y+20	; 0x14
    1d4a:	7d 89       	ldd	r23, Y+21	; 0x15
    1d4c:	8e 89       	ldd	r24, Y+22	; 0x16
    1d4e:	9f 89       	ldd	r25, Y+23	; 0x17
    1d50:	0e 94 69 1d 	call	0x3ad2	; 0x3ad2 <__gesf2>
    1d54:	88 23       	and	r24, r24
    1d56:	09 f0       	breq	.+2      	; 0x1d5a <L0^A>

00001d58 <L0^A>:
    1d58:	0c f4       	brge	.+2      	; 0x1d5c <.LM240>

00001d5a <L0^A>:
    1d5a:	42 c0       	rjmp	.+132    	; 0x1de0 <.L156>

00001d5c <.LM240>:
    1d5c:	20 e0       	ldi	r18, 0x00	; 0
    1d5e:	30 e0       	ldi	r19, 0x00	; 0
    1d60:	40 e2       	ldi	r20, 0x20	; 32
    1d62:	51 e4       	ldi	r21, 0x41	; 65
    1d64:	68 89       	ldd	r22, Y+16	; 0x10
    1d66:	79 89       	ldd	r23, Y+17	; 0x11
    1d68:	8a 89       	ldd	r24, Y+18	; 0x12
    1d6a:	9b 89       	ldd	r25, Y+19	; 0x13
    1d6c:	0e 94 6e 1d 	call	0x3adc	; 0x3adc <__mulsf3>
    1d70:	62 96       	adiw	r28, 0x12	; 18
    1d72:	6c af       	std	Y+60, r22	; 0x3c
    1d74:	7d af       	std	Y+61, r23	; 0x3d
    1d76:	8e af       	std	Y+62, r24	; 0x3e
    1d78:	9f af       	std	Y+63, r25	; 0x3f
    1d7a:	62 97       	sbiw	r28, 0x12	; 18
    1d7c:	62 96       	adiw	r28, 0x12	; 18
    1d7e:	8c ad       	ldd	r24, Y+60	; 0x3c
    1d80:	9d ad       	ldd	r25, Y+61	; 0x3d
    1d82:	ae ad       	ldd	r26, Y+62	; 0x3e
    1d84:	bf ad       	ldd	r27, Y+63	; 0x3f
    1d86:	62 97       	sbiw	r28, 0x12	; 18
    1d88:	8a ab       	std	Y+50, r24	; 0x32
    1d8a:	9b ab       	std	Y+51, r25	; 0x33
    1d8c:	ac ab       	std	Y+52, r26	; 0x34
    1d8e:	bd ab       	std	Y+53, r27	; 0x35

00001d90 <.LM241>:
    1d90:	6a a9       	ldd	r22, Y+50	; 0x32
    1d92:	7b a9       	ldd	r23, Y+51	; 0x33
    1d94:	8c a9       	ldd	r24, Y+52	; 0x34
    1d96:	9d a9       	ldd	r25, Y+53	; 0x35
    1d98:	0e 94 88 1c 	call	0x3910	; 0x3910 <__fixunssfsi>
    1d9c:	66 96       	adiw	r28, 0x16	; 22
    1d9e:	6c af       	std	Y+60, r22	; 0x3c
    1da0:	7d af       	std	Y+61, r23	; 0x3d
    1da2:	8e af       	std	Y+62, r24	; 0x3e
    1da4:	9f af       	std	Y+63, r25	; 0x3f
    1da6:	66 97       	sbiw	r28, 0x16	; 22
    1da8:	64 96       	adiw	r28, 0x14	; 20
    1daa:	ae ad       	ldd	r26, Y+62	; 0x3e
    1dac:	bf ad       	ldd	r27, Y+63	; 0x3f
    1dae:	64 97       	sbiw	r28, 0x14	; 20
    1db0:	b9 8f       	std	Y+25, r27	; 0x19
    1db2:	a8 8f       	std	Y+24, r26	; 0x18

00001db4 <.LM242>:
    1db4:	10 c0       	rjmp	.+32     	; 0x1dd6 <.L134>

00001db6 <.L135>:
    1db6:	88 ec       	ldi	r24, 0xC8	; 200
    1db8:	90 e0       	ldi	r25, 0x00	; 0
    1dba:	9b 8f       	std	Y+27, r25	; 0x1b
    1dbc:	8a 8f       	std	Y+26, r24	; 0x1a

00001dbe <.LM243>:
    1dbe:	8a 8d       	ldd	r24, Y+26	; 0x1a
    1dc0:	9b 8d       	ldd	r25, Y+27	; 0x1b

00001dc2 <.L1^B23>:
    1dc2:	01 97       	sbiw	r24, 0x01	; 1
    1dc4:	f1 f7       	brne	.-4      	; 0x1dc2 <.L1^B23>
    1dc6:	9b 8f       	std	Y+27, r25	; 0x1b
    1dc8:	8a 8f       	std	Y+26, r24	; 0x1a

00001dca <.LM244>:
	...

00001dcc <.LM245>:
    1dcc:	88 8d       	ldd	r24, Y+24	; 0x18
    1dce:	99 8d       	ldd	r25, Y+25	; 0x19
    1dd0:	01 97       	sbiw	r24, 0x01	; 1
    1dd2:	99 8f       	std	Y+25, r25	; 0x19
    1dd4:	88 8f       	std	Y+24, r24	; 0x18

00001dd6 <.L134>:
    1dd6:	88 8d       	ldd	r24, Y+24	; 0x18
    1dd8:	99 8d       	ldd	r25, Y+25	; 0x19
    1dda:	00 97       	sbiw	r24, 0x00	; 0
    1ddc:	61 f7       	brne	.-40     	; 0x1db6 <.L135>

00001dde <.LM247>:
    1dde:	1d c0       	rjmp	.+58     	; 0x1e1a <.L136>

00001de0 <.L156>:
    1de0:	6c 89       	ldd	r22, Y+20	; 0x14
    1de2:	7d 89       	ldd	r23, Y+21	; 0x15
    1de4:	8e 89       	ldd	r24, Y+22	; 0x16
    1de6:	9f 89       	ldd	r25, Y+23	; 0x17
    1de8:	0e 94 88 1c 	call	0x3910	; 0x3910 <__fixunssfsi>
    1dec:	6a 96       	adiw	r28, 0x1a	; 26
    1dee:	6c af       	std	Y+60, r22	; 0x3c
    1df0:	7d af       	std	Y+61, r23	; 0x3d
    1df2:	8e af       	std	Y+62, r24	; 0x3e
    1df4:	9f af       	std	Y+63, r25	; 0x3f
    1df6:	6a 97       	sbiw	r28, 0x1a	; 26
    1df8:	68 96       	adiw	r28, 0x18	; 24
    1dfa:	ee ad       	ldd	r30, Y+62	; 0x3e
    1dfc:	ff ad       	ldd	r31, Y+63	; 0x3f
    1dfe:	68 97       	sbiw	r28, 0x18	; 24
    1e00:	f9 8f       	std	Y+25, r31	; 0x19
    1e02:	e8 8f       	std	Y+24, r30	; 0x18

00001e04 <.L131>:
    1e04:	88 8d       	ldd	r24, Y+24	; 0x18
    1e06:	99 8d       	ldd	r25, Y+25	; 0x19
    1e08:	9d 8f       	std	Y+29, r25	; 0x1d
    1e0a:	8c 8f       	std	Y+28, r24	; 0x1c

00001e0c <.LM249>:
    1e0c:	8c 8d       	ldd	r24, Y+28	; 0x1c
    1e0e:	9d 8d       	ldd	r25, Y+29	; 0x1d

00001e10 <.L1^B24>:
    1e10:	01 97       	sbiw	r24, 0x01	; 1
    1e12:	f1 f7       	brne	.-4      	; 0x1e10 <.L1^B24>
    1e14:	9d 8f       	std	Y+29, r25	; 0x1d
    1e16:	8c 8f       	std	Y+28, r24	; 0x1c

00001e18 <.LM250>:
	...

00001e1a <.L136>:
    1e1a:	8c a5       	ldd	r24, Y+44	; 0x2c
    1e1c:	28 2f       	mov	r18, r24
    1e1e:	30 e0       	ldi	r19, 0x00	; 0
    1e20:	4d e0       	ldi	r20, 0x0D	; 13
    1e22:	42 9f       	mul	r20, r18
    1e24:	c0 01       	movw	r24, r0
    1e26:	43 9f       	mul	r20, r19
    1e28:	90 0d       	add	r25, r0
    1e2a:	11 24       	eor	r1, r1
    1e2c:	8e 57       	subi	r24, 0x7E	; 126
    1e2e:	9f 4f       	sbci	r25, 0xFF	; 255
    1e30:	dc 01       	movw	r26, r24
    1e32:	8c 91       	ld	r24, X
    1e34:	60 e0       	ldi	r22, 0x00	; 0
    1e36:	0e 94 79 00 	call	0xf2	; 0xf2 <MDIO_enuSetPinValue>

00001e3a <.LM252>:
    1e3a:	19 82       	std	Y+1, r1	; 0x01

00001e3c <.LM253>:
    1e3c:	25 c0       	rjmp	.+74     	; 0x1e88 <.L137>

00001e3e <.L138>:
    1e3e:	8d a5       	ldd	r24, Y+45	; 0x2d
    1e40:	88 2f       	mov	r24, r24
    1e42:	90 e0       	ldi	r25, 0x00	; 0
    1e44:	29 81       	ldd	r18, Y+1	; 0x01
    1e46:	22 2f       	mov	r18, r18
    1e48:	30 e0       	ldi	r19, 0x00	; 0
    1e4a:	02 c0       	rjmp	.+4      	; 0x1e50 <.L2^B3>

00001e4c <.L1^B25>:
    1e4c:	95 95       	asr	r25
    1e4e:	87 95       	ror	r24

00001e50 <.L2^B3>:
    1e50:	2a 95       	dec	r18
    1e52:	e2 f7       	brpl	.-8      	; 0x1e4c <.L1^B25>

00001e54 <.LM255>:
    1e54:	78 2f       	mov	r23, r24
    1e56:	71 70       	andi	r23, 0x01	; 1
    1e58:	8c a5       	ldd	r24, Y+44	; 0x2c
    1e5a:	48 2f       	mov	r20, r24
    1e5c:	50 e0       	ldi	r21, 0x00	; 0
    1e5e:	89 81       	ldd	r24, Y+1	; 0x01
    1e60:	88 2f       	mov	r24, r24
    1e62:	90 e0       	ldi	r25, 0x00	; 0
    1e64:	6d e0       	ldi	r22, 0x0D	; 13
    1e66:	64 9f       	mul	r22, r20
    1e68:	90 01       	movw	r18, r0
    1e6a:	65 9f       	mul	r22, r21
    1e6c:	30 0d       	add	r19, r0
    1e6e:	11 24       	eor	r1, r1
    1e70:	82 0f       	add	r24, r18
    1e72:	93 1f       	adc	r25, r19
    1e74:	88 58       	subi	r24, 0x88	; 136
    1e76:	9f 4f       	sbci	r25, 0xFF	; 255
    1e78:	fc 01       	movw	r30, r24
    1e7a:	80 81       	ld	r24, Z
    1e7c:	67 2f       	mov	r22, r23
    1e7e:	0e 94 79 00 	call	0xf2	; 0xf2 <MDIO_enuSetPinValue>

00001e82 <.LM256>:
    1e82:	89 81       	ldd	r24, Y+1	; 0x01
    1e84:	8f 5f       	subi	r24, 0xFF	; 255
    1e86:	89 83       	std	Y+1, r24	; 0x01

00001e88 <.L137>:
    1e88:	89 81       	ldd	r24, Y+1	; 0x01
    1e8a:	83 30       	cpi	r24, 0x03	; 3
    1e8c:	c1 f2       	breq	.-80     	; 0x1e3e <.L138>
    1e8e:	b8 f2       	brcs	.-82     	; 0x1e3e <.L138>

00001e90 <.LM258>:
    1e90:	8c a5       	ldd	r24, Y+44	; 0x2c
    1e92:	28 2f       	mov	r18, r24
    1e94:	30 e0       	ldi	r19, 0x00	; 0
    1e96:	4d e0       	ldi	r20, 0x0D	; 13
    1e98:	42 9f       	mul	r20, r18
    1e9a:	c0 01       	movw	r24, r0
    1e9c:	43 9f       	mul	r20, r19
    1e9e:	90 0d       	add	r25, r0
    1ea0:	11 24       	eor	r1, r1
    1ea2:	8e 57       	subi	r24, 0x7E	; 126
    1ea4:	9f 4f       	sbci	r25, 0xFF	; 255
    1ea6:	dc 01       	movw	r26, r24
    1ea8:	8c 91       	ld	r24, X
    1eaa:	61 e0       	ldi	r22, 0x01	; 1
    1eac:	0e 94 79 00 	call	0xf2	; 0xf2 <MDIO_enuSetPinValue>
    1eb0:	80 e0       	ldi	r24, 0x00	; 0
    1eb2:	90 e0       	ldi	r25, 0x00	; 0
    1eb4:	a0 e0       	ldi	r26, 0x00	; 0
    1eb6:	b0 e4       	ldi	r27, 0x40	; 64
    1eb8:	8e 8f       	std	Y+30, r24	; 0x1e
    1eba:	9f 8f       	std	Y+31, r25	; 0x1f
    1ebc:	a8 a3       	std	Y+32, r26	; 0x20
    1ebe:	b9 a3       	std	Y+33, r27	; 0x21

00001ec0 <.LM259>:
    1ec0:	20 e0       	ldi	r18, 0x00	; 0
    1ec2:	30 e0       	ldi	r19, 0x00	; 0
    1ec4:	4a ef       	ldi	r20, 0xFA	; 250
    1ec6:	54 e4       	ldi	r21, 0x44	; 68
    1ec8:	6e 8d       	ldd	r22, Y+30	; 0x1e
    1eca:	7f 8d       	ldd	r23, Y+31	; 0x1f
    1ecc:	88 a1       	ldd	r24, Y+32	; 0x20
    1ece:	99 a1       	ldd	r25, Y+33	; 0x21
    1ed0:	0e 94 6e 1d 	call	0x3adc	; 0x3adc <__mulsf3>
    1ed4:	6e 96       	adiw	r28, 0x1e	; 30
    1ed6:	6c af       	std	Y+60, r22	; 0x3c
    1ed8:	7d af       	std	Y+61, r23	; 0x3d
    1eda:	8e af       	std	Y+62, r24	; 0x3e
    1edc:	9f af       	std	Y+63, r25	; 0x3f
    1ede:	6e 97       	sbiw	r28, 0x1e	; 30
    1ee0:	6e 96       	adiw	r28, 0x1e	; 30
    1ee2:	8c ad       	ldd	r24, Y+60	; 0x3c
    1ee4:	9d ad       	ldd	r25, Y+61	; 0x3d
    1ee6:	ae ad       	ldd	r26, Y+62	; 0x3e
    1ee8:	bf ad       	ldd	r27, Y+63	; 0x3f
    1eea:	6e 97       	sbiw	r28, 0x1e	; 30
    1eec:	8a a3       	std	Y+34, r24	; 0x22
    1eee:	9b a3       	std	Y+35, r25	; 0x23
    1ef0:	ac a3       	std	Y+36, r26	; 0x24
    1ef2:	bd a3       	std	Y+37, r27	; 0x25

00001ef4 <.LM260>:
    1ef4:	20 e0       	ldi	r18, 0x00	; 0
    1ef6:	30 e0       	ldi	r19, 0x00	; 0
    1ef8:	40 e8       	ldi	r20, 0x80	; 128
    1efa:	5f e3       	ldi	r21, 0x3F	; 63
    1efc:	6a a1       	ldd	r22, Y+34	; 0x22
    1efe:	7b a1       	ldd	r23, Y+35	; 0x23
    1f00:	8c a1       	ldd	r24, Y+36	; 0x24
    1f02:	9d a1       	ldd	r25, Y+37	; 0x25
    1f04:	0e 94 11 1c 	call	0x3822	; 0x3822 <__cmpsf2>
    1f08:	88 23       	and	r24, r24
    1f0a:	2c f4       	brge	.+10     	; 0x1f16 <.L157>

00001f0c <.LM261>:
    1f0c:	81 e0       	ldi	r24, 0x01	; 1
    1f0e:	90 e0       	ldi	r25, 0x00	; 0
    1f10:	9f a3       	std	Y+39, r25	; 0x27
    1f12:	8e a3       	std	Y+38, r24	; 0x26
    1f14:	62 c0       	rjmp	.+196    	; 0x1fda <.L141>

00001f16 <.L157>:
    1f16:	20 e0       	ldi	r18, 0x00	; 0
    1f18:	3f ef       	ldi	r19, 0xFF	; 255
    1f1a:	4f e7       	ldi	r20, 0x7F	; 127
    1f1c:	57 e4       	ldi	r21, 0x47	; 71
    1f1e:	6a a1       	ldd	r22, Y+34	; 0x22
    1f20:	7b a1       	ldd	r23, Y+35	; 0x23
    1f22:	8c a1       	ldd	r24, Y+36	; 0x24
    1f24:	9d a1       	ldd	r25, Y+37	; 0x25
    1f26:	0e 94 69 1d 	call	0x3ad2	; 0x3ad2 <__gesf2>
    1f2a:	88 23       	and	r24, r24
    1f2c:	09 f0       	breq	.+2      	; 0x1f30 <L0^A>

00001f2e <L0^A>:
    1f2e:	0c f4       	brge	.+2      	; 0x1f32 <.LM263>

00001f30 <L0^A>:
    1f30:	42 c0       	rjmp	.+132    	; 0x1fb6 <.L158>

00001f32 <.LM263>:
    1f32:	20 e0       	ldi	r18, 0x00	; 0
    1f34:	30 e0       	ldi	r19, 0x00	; 0
    1f36:	40 e2       	ldi	r20, 0x20	; 32
    1f38:	51 e4       	ldi	r21, 0x41	; 65
    1f3a:	6e 8d       	ldd	r22, Y+30	; 0x1e
    1f3c:	7f 8d       	ldd	r23, Y+31	; 0x1f
    1f3e:	88 a1       	ldd	r24, Y+32	; 0x20
    1f40:	99 a1       	ldd	r25, Y+33	; 0x21
    1f42:	0e 94 6e 1d 	call	0x3adc	; 0x3adc <__mulsf3>
    1f46:	a2 96       	adiw	r28, 0x22	; 34
    1f48:	6c af       	std	Y+60, r22	; 0x3c
    1f4a:	7d af       	std	Y+61, r23	; 0x3d
    1f4c:	8e af       	std	Y+62, r24	; 0x3e
    1f4e:	9f af       	std	Y+63, r25	; 0x3f
    1f50:	a2 97       	sbiw	r28, 0x22	; 34
    1f52:	a2 96       	adiw	r28, 0x22	; 34
    1f54:	8c ad       	ldd	r24, Y+60	; 0x3c
    1f56:	9d ad       	ldd	r25, Y+61	; 0x3d
    1f58:	ae ad       	ldd	r26, Y+62	; 0x3e
    1f5a:	bf ad       	ldd	r27, Y+63	; 0x3f
    1f5c:	a2 97       	sbiw	r28, 0x22	; 34
    1f5e:	8e ab       	std	Y+54, r24	; 0x36
    1f60:	9f ab       	std	Y+55, r25	; 0x37
    1f62:	a8 af       	std	Y+56, r26	; 0x38
    1f64:	b9 af       	std	Y+57, r27	; 0x39

00001f66 <.LM264>:
    1f66:	6e a9       	ldd	r22, Y+54	; 0x36
    1f68:	7f a9       	ldd	r23, Y+55	; 0x37
    1f6a:	88 ad       	ldd	r24, Y+56	; 0x38
    1f6c:	99 ad       	ldd	r25, Y+57	; 0x39
    1f6e:	0e 94 88 1c 	call	0x3910	; 0x3910 <__fixunssfsi>
    1f72:	a6 96       	adiw	r28, 0x26	; 38
    1f74:	6c af       	std	Y+60, r22	; 0x3c
    1f76:	7d af       	std	Y+61, r23	; 0x3d
    1f78:	8e af       	std	Y+62, r24	; 0x3e
    1f7a:	9f af       	std	Y+63, r25	; 0x3f
    1f7c:	a6 97       	sbiw	r28, 0x26	; 38
    1f7e:	a4 96       	adiw	r28, 0x24	; 36
    1f80:	ae ad       	ldd	r26, Y+62	; 0x3e
    1f82:	bf ad       	ldd	r27, Y+63	; 0x3f
    1f84:	a4 97       	sbiw	r28, 0x24	; 36
    1f86:	bf a3       	std	Y+39, r27	; 0x27
    1f88:	ae a3       	std	Y+38, r26	; 0x26

00001f8a <.LM265>:
    1f8a:	10 c0       	rjmp	.+32     	; 0x1fac <.L144>

00001f8c <.L145>:
    1f8c:	88 ec       	ldi	r24, 0xC8	; 200
    1f8e:	90 e0       	ldi	r25, 0x00	; 0
    1f90:	99 a7       	std	Y+41, r25	; 0x29
    1f92:	88 a7       	std	Y+40, r24	; 0x28

00001f94 <.LM266>:
    1f94:	88 a5       	ldd	r24, Y+40	; 0x28
    1f96:	99 a5       	ldd	r25, Y+41	; 0x29

00001f98 <.L1^B26>:
    1f98:	01 97       	sbiw	r24, 0x01	; 1
    1f9a:	f1 f7       	brne	.-4      	; 0x1f98 <.L1^B26>
    1f9c:	99 a7       	std	Y+41, r25	; 0x29
    1f9e:	88 a7       	std	Y+40, r24	; 0x28

00001fa0 <.LM267>:
	...

00001fa2 <.LM268>:
    1fa2:	8e a1       	ldd	r24, Y+38	; 0x26
    1fa4:	9f a1       	ldd	r25, Y+39	; 0x27
    1fa6:	01 97       	sbiw	r24, 0x01	; 1
    1fa8:	9f a3       	std	Y+39, r25	; 0x27
    1faa:	8e a3       	std	Y+38, r24	; 0x26

00001fac <.L144>:
    1fac:	8e a1       	ldd	r24, Y+38	; 0x26
    1fae:	9f a1       	ldd	r25, Y+39	; 0x27
    1fb0:	00 97       	sbiw	r24, 0x00	; 0
    1fb2:	61 f7       	brne	.-40     	; 0x1f8c <.L145>

00001fb4 <.LM270>:
    1fb4:	1d c0       	rjmp	.+58     	; 0x1ff0 <.L146>

00001fb6 <.L158>:
    1fb6:	6a a1       	ldd	r22, Y+34	; 0x22
    1fb8:	7b a1       	ldd	r23, Y+35	; 0x23
    1fba:	8c a1       	ldd	r24, Y+36	; 0x24
    1fbc:	9d a1       	ldd	r25, Y+37	; 0x25
    1fbe:	0e 94 88 1c 	call	0x3910	; 0x3910 <__fixunssfsi>
    1fc2:	aa 96       	adiw	r28, 0x2a	; 42
    1fc4:	6c af       	std	Y+60, r22	; 0x3c
    1fc6:	7d af       	std	Y+61, r23	; 0x3d
    1fc8:	8e af       	std	Y+62, r24	; 0x3e
    1fca:	9f af       	std	Y+63, r25	; 0x3f
    1fcc:	aa 97       	sbiw	r28, 0x2a	; 42
    1fce:	a8 96       	adiw	r28, 0x28	; 40
    1fd0:	ee ad       	ldd	r30, Y+62	; 0x3e
    1fd2:	ff ad       	ldd	r31, Y+63	; 0x3f
    1fd4:	a8 97       	sbiw	r28, 0x28	; 40
    1fd6:	ff a3       	std	Y+39, r31	; 0x27
    1fd8:	ee a3       	std	Y+38, r30	; 0x26

00001fda <.L141>:
    1fda:	8e a1       	ldd	r24, Y+38	; 0x26
    1fdc:	9f a1       	ldd	r25, Y+39	; 0x27
    1fde:	9b a7       	std	Y+43, r25	; 0x2b
    1fe0:	8a a7       	std	Y+42, r24	; 0x2a

00001fe2 <.LM272>:
    1fe2:	8a a5       	ldd	r24, Y+42	; 0x2a
    1fe4:	9b a5       	ldd	r25, Y+43	; 0x2b

00001fe6 <.L1^B27>:
    1fe6:	01 97       	sbiw	r24, 0x01	; 1
    1fe8:	f1 f7       	brne	.-4      	; 0x1fe6 <.L1^B27>
    1fea:	9b a7       	std	Y+43, r25	; 0x2b
    1fec:	8a a7       	std	Y+42, r24	; 0x2a

00001fee <.LM273>:
	...

00001ff0 <.L146>:
    1ff0:	8c a5       	ldd	r24, Y+44	; 0x2c
    1ff2:	28 2f       	mov	r18, r24
    1ff4:	30 e0       	ldi	r19, 0x00	; 0
    1ff6:	4d e0       	ldi	r20, 0x0D	; 13
    1ff8:	42 9f       	mul	r20, r18
    1ffa:	c0 01       	movw	r24, r0
    1ffc:	43 9f       	mul	r20, r19
    1ffe:	90 0d       	add	r25, r0
    2000:	11 24       	eor	r1, r1
    2002:	8e 57       	subi	r24, 0x7E	; 126
    2004:	9f 4f       	sbci	r25, 0xFF	; 255
    2006:	dc 01       	movw	r26, r24
    2008:	8c 91       	ld	r24, X
    200a:	60 e0       	ldi	r22, 0x00	; 0
    200c:	0e 94 79 00 	call	0xf2	; 0xf2 <MDIO_enuSetPinValue>

00002010 <.L159>:
    2010:	00 00       	nop
    2012:	c7 59       	subi	r28, 0x97	; 151
    2014:	df 4f       	sbci	r29, 0xFF	; 255
    2016:	0f b6       	in	r0, 0x3f	; 63
    2018:	f8 94       	cli
    201a:	de bf       	out	0x3e, r29	; 62
    201c:	0f be       	out	0x3f, r0	; 63
    201e:	cd bf       	out	0x3d, r28	; 61
    2020:	df 91       	pop	r29
    2022:	cf 91       	pop	r28
    2024:	08 95       	ret

00002026 <HLCD_voidSendCommand>:
    2026:	cf 93       	push	r28
    2028:	df 93       	push	r29
    202a:	cd b7       	in	r28, 0x3d	; 61
    202c:	de b7       	in	r29, 0x3e	; 62
    202e:	c9 56       	subi	r28, 0x69	; 105
    2030:	d1 09       	sbc	r29, r1
    2032:	0f b6       	in	r0, 0x3f	; 63
    2034:	f8 94       	cli
    2036:	de bf       	out	0x3e, r29	; 62
    2038:	0f be       	out	0x3f, r0	; 63
    203a:	cd bf       	out	0x3d, r28	; 61
    203c:	8c a7       	std	Y+44, r24	; 0x2c
    203e:	6d a7       	std	Y+45, r22	; 0x2d

00002040 <.LM277>:
    2040:	19 82       	std	Y+1, r1	; 0x01

00002042 <.LM278>:
    2042:	8c a5       	ldd	r24, Y+44	; 0x2c
    2044:	28 2f       	mov	r18, r24
    2046:	30 e0       	ldi	r19, 0x00	; 0
    2048:	4d e0       	ldi	r20, 0x0D	; 13
    204a:	42 9f       	mul	r20, r18
    204c:	c0 01       	movw	r24, r0
    204e:	43 9f       	mul	r20, r19
    2050:	90 0d       	add	r25, r0
    2052:	11 24       	eor	r1, r1
    2054:	80 58       	subi	r24, 0x80	; 128
    2056:	9f 4f       	sbci	r25, 0xFF	; 255
    2058:	dc 01       	movw	r26, r24
    205a:	8c 91       	ld	r24, X
    205c:	60 e0       	ldi	r22, 0x00	; 0
    205e:	0e 94 79 00 	call	0xf2	; 0xf2 <MDIO_enuSetPinValue>

00002062 <.LM279>:
    2062:	8c a5       	ldd	r24, Y+44	; 0x2c
    2064:	28 2f       	mov	r18, r24
    2066:	30 e0       	ldi	r19, 0x00	; 0
    2068:	4d e0       	ldi	r20, 0x0D	; 13
    206a:	42 9f       	mul	r20, r18
    206c:	c0 01       	movw	r24, r0
    206e:	43 9f       	mul	r20, r19
    2070:	90 0d       	add	r25, r0
    2072:	11 24       	eor	r1, r1
    2074:	8f 57       	subi	r24, 0x7F	; 127
    2076:	9f 4f       	sbci	r25, 0xFF	; 255
    2078:	fc 01       	movw	r30, r24
    207a:	80 81       	ld	r24, Z
    207c:	60 e0       	ldi	r22, 0x00	; 0
    207e:	0e 94 79 00 	call	0xf2	; 0xf2 <MDIO_enuSetPinValue>

00002082 <.LM280>:
    2082:	8c a5       	ldd	r24, Y+44	; 0x2c
    2084:	28 2f       	mov	r18, r24
    2086:	30 e0       	ldi	r19, 0x00	; 0
    2088:	4d e0       	ldi	r20, 0x0D	; 13
    208a:	42 9f       	mul	r20, r18
    208c:	c0 01       	movw	r24, r0
    208e:	43 9f       	mul	r20, r19
    2090:	90 0d       	add	r25, r0
    2092:	11 24       	eor	r1, r1
    2094:	8d 57       	subi	r24, 0x7D	; 125
    2096:	9f 4f       	sbci	r25, 0xFF	; 255
    2098:	dc 01       	movw	r26, r24
    209a:	8c 91       	ld	r24, X

0000209c <.LM281>:
    209c:	81 30       	cpi	r24, 0x01	; 1
    209e:	09 f0       	breq	.+2      	; 0x20a2 <.LM282>

000020a0 <L0^A>:
    20a0:	e8 c0       	rjmp	.+464    	; 0x2272 <.L161>

000020a2 <.LM282>:
    20a2:	19 82       	std	Y+1, r1	; 0x01

000020a4 <.LM283>:
    20a4:	25 c0       	rjmp	.+74     	; 0x20f0 <.L162>

000020a6 <.L163>:
    20a6:	8d a5       	ldd	r24, Y+45	; 0x2d
    20a8:	88 2f       	mov	r24, r24
    20aa:	90 e0       	ldi	r25, 0x00	; 0
    20ac:	29 81       	ldd	r18, Y+1	; 0x01
    20ae:	22 2f       	mov	r18, r18
    20b0:	30 e0       	ldi	r19, 0x00	; 0
    20b2:	02 c0       	rjmp	.+4      	; 0x20b8 <.L2^B4>

000020b4 <.L1^B28>:
    20b4:	95 95       	asr	r25
    20b6:	87 95       	ror	r24

000020b8 <.L2^B4>:
    20b8:	2a 95       	dec	r18
    20ba:	e2 f7       	brpl	.-8      	; 0x20b4 <.L1^B28>

000020bc <.LM285>:
    20bc:	78 2f       	mov	r23, r24
    20be:	71 70       	andi	r23, 0x01	; 1
    20c0:	8c a5       	ldd	r24, Y+44	; 0x2c
    20c2:	48 2f       	mov	r20, r24
    20c4:	50 e0       	ldi	r21, 0x00	; 0
    20c6:	89 81       	ldd	r24, Y+1	; 0x01
    20c8:	88 2f       	mov	r24, r24
    20ca:	90 e0       	ldi	r25, 0x00	; 0
    20cc:	6d e0       	ldi	r22, 0x0D	; 13
    20ce:	64 9f       	mul	r22, r20
    20d0:	90 01       	movw	r18, r0
    20d2:	65 9f       	mul	r22, r21
    20d4:	30 0d       	add	r19, r0
    20d6:	11 24       	eor	r1, r1
    20d8:	82 0f       	add	r24, r18
    20da:	93 1f       	adc	r25, r19
    20dc:	88 58       	subi	r24, 0x88	; 136
    20de:	9f 4f       	sbci	r25, 0xFF	; 255
    20e0:	fc 01       	movw	r30, r24
    20e2:	80 81       	ld	r24, Z
    20e4:	67 2f       	mov	r22, r23
    20e6:	0e 94 79 00 	call	0xf2	; 0xf2 <MDIO_enuSetPinValue>

000020ea <.LM286>:
    20ea:	89 81       	ldd	r24, Y+1	; 0x01
    20ec:	8f 5f       	subi	r24, 0xFF	; 255
    20ee:	89 83       	std	Y+1, r24	; 0x01

000020f0 <.L162>:
    20f0:	89 81       	ldd	r24, Y+1	; 0x01
    20f2:	87 30       	cpi	r24, 0x07	; 7
    20f4:	c1 f2       	breq	.-80     	; 0x20a6 <.L163>
    20f6:	b8 f2       	brcs	.-82     	; 0x20a6 <.L163>

000020f8 <.LM288>:
    20f8:	8c a5       	ldd	r24, Y+44	; 0x2c
    20fa:	28 2f       	mov	r18, r24
    20fc:	30 e0       	ldi	r19, 0x00	; 0
    20fe:	4d e0       	ldi	r20, 0x0D	; 13
    2100:	42 9f       	mul	r20, r18
    2102:	c0 01       	movw	r24, r0
    2104:	43 9f       	mul	r20, r19
    2106:	90 0d       	add	r25, r0
    2108:	11 24       	eor	r1, r1
    210a:	8e 57       	subi	r24, 0x7E	; 126
    210c:	9f 4f       	sbci	r25, 0xFF	; 255
    210e:	dc 01       	movw	r26, r24
    2110:	8c 91       	ld	r24, X
    2112:	61 e0       	ldi	r22, 0x01	; 1
    2114:	0e 94 79 00 	call	0xf2	; 0xf2 <MDIO_enuSetPinValue>
    2118:	80 e0       	ldi	r24, 0x00	; 0
    211a:	90 e0       	ldi	r25, 0x00	; 0
    211c:	a0 e0       	ldi	r26, 0x00	; 0
    211e:	b0 e4       	ldi	r27, 0x40	; 64
    2120:	8a 83       	std	Y+2, r24	; 0x02
    2122:	9b 83       	std	Y+3, r25	; 0x03
    2124:	ac 83       	std	Y+4, r26	; 0x04
    2126:	bd 83       	std	Y+5, r27	; 0x05

00002128 <.LM289>:
    2128:	20 e0       	ldi	r18, 0x00	; 0
    212a:	30 e0       	ldi	r19, 0x00	; 0
    212c:	4a ef       	ldi	r20, 0xFA	; 250
    212e:	54 e4       	ldi	r21, 0x44	; 68
    2130:	6a 81       	ldd	r22, Y+2	; 0x02
    2132:	7b 81       	ldd	r23, Y+3	; 0x03
    2134:	8c 81       	ldd	r24, Y+4	; 0x04
    2136:	9d 81       	ldd	r25, Y+5	; 0x05
    2138:	0e 94 6e 1d 	call	0x3adc	; 0x3adc <__mulsf3>
    213c:	6a af       	std	Y+58, r22	; 0x3a
    213e:	7b af       	std	Y+59, r23	; 0x3b
    2140:	8c af       	std	Y+60, r24	; 0x3c
    2142:	9d af       	std	Y+61, r25	; 0x3d
    2144:	8a ad       	ldd	r24, Y+58	; 0x3a
    2146:	9b ad       	ldd	r25, Y+59	; 0x3b
    2148:	ac ad       	ldd	r26, Y+60	; 0x3c
    214a:	bd ad       	ldd	r27, Y+61	; 0x3d
    214c:	8e 83       	std	Y+6, r24	; 0x06
    214e:	9f 83       	std	Y+7, r25	; 0x07
    2150:	a8 87       	std	Y+8, r26	; 0x08
    2152:	b9 87       	std	Y+9, r27	; 0x09

00002154 <.LM290>:
    2154:	20 e0       	ldi	r18, 0x00	; 0
    2156:	30 e0       	ldi	r19, 0x00	; 0
    2158:	40 e8       	ldi	r20, 0x80	; 128
    215a:	5f e3       	ldi	r21, 0x3F	; 63
    215c:	6e 81       	ldd	r22, Y+6	; 0x06
    215e:	7f 81       	ldd	r23, Y+7	; 0x07
    2160:	88 85       	ldd	r24, Y+8	; 0x08
    2162:	99 85       	ldd	r25, Y+9	; 0x09
    2164:	0e 94 11 1c 	call	0x3822	; 0x3822 <__cmpsf2>
    2168:	88 23       	and	r24, r24
    216a:	2c f4       	brge	.+10     	; 0x2176 <.L199>

0000216c <.LM291>:
    216c:	81 e0       	ldi	r24, 0x01	; 1
    216e:	90 e0       	ldi	r25, 0x00	; 0
    2170:	9b 87       	std	Y+11, r25	; 0x0b
    2172:	8a 87       	std	Y+10, r24	; 0x0a
    2174:	62 c0       	rjmp	.+196    	; 0x223a <.L166>

00002176 <.L199>:
    2176:	20 e0       	ldi	r18, 0x00	; 0
    2178:	3f ef       	ldi	r19, 0xFF	; 255
    217a:	4f e7       	ldi	r20, 0x7F	; 127
    217c:	57 e4       	ldi	r21, 0x47	; 71
    217e:	6e 81       	ldd	r22, Y+6	; 0x06
    2180:	7f 81       	ldd	r23, Y+7	; 0x07
    2182:	88 85       	ldd	r24, Y+8	; 0x08
    2184:	99 85       	ldd	r25, Y+9	; 0x09
    2186:	0e 94 69 1d 	call	0x3ad2	; 0x3ad2 <__gesf2>
    218a:	88 23       	and	r24, r24
    218c:	09 f0       	breq	.+2      	; 0x2190 <L0^A>

0000218e <L0^A>:
    218e:	0c f4       	brge	.+2      	; 0x2192 <.LM293>

00002190 <L0^A>:
    2190:	42 c0       	rjmp	.+132    	; 0x2216 <.L200>

00002192 <.LM293>:
    2192:	20 e0       	ldi	r18, 0x00	; 0
    2194:	30 e0       	ldi	r19, 0x00	; 0
    2196:	40 e2       	ldi	r20, 0x20	; 32
    2198:	51 e4       	ldi	r21, 0x41	; 65
    219a:	6a 81       	ldd	r22, Y+2	; 0x02
    219c:	7b 81       	ldd	r23, Y+3	; 0x03
    219e:	8c 81       	ldd	r24, Y+4	; 0x04
    21a0:	9d 81       	ldd	r25, Y+5	; 0x05
    21a2:	0e 94 6e 1d 	call	0x3adc	; 0x3adc <__mulsf3>
    21a6:	22 96       	adiw	r28, 0x02	; 2
    21a8:	6c af       	std	Y+60, r22	; 0x3c
    21aa:	7d af       	std	Y+61, r23	; 0x3d
    21ac:	8e af       	std	Y+62, r24	; 0x3e
    21ae:	9f af       	std	Y+63, r25	; 0x3f
    21b0:	22 97       	sbiw	r28, 0x02	; 2
    21b2:	22 96       	adiw	r28, 0x02	; 2
    21b4:	8c ad       	ldd	r24, Y+60	; 0x3c
    21b6:	9d ad       	ldd	r25, Y+61	; 0x3d
    21b8:	ae ad       	ldd	r26, Y+62	; 0x3e
    21ba:	bf ad       	ldd	r27, Y+63	; 0x3f
    21bc:	22 97       	sbiw	r28, 0x02	; 2
    21be:	8e a7       	std	Y+46, r24	; 0x2e
    21c0:	9f a7       	std	Y+47, r25	; 0x2f
    21c2:	a8 ab       	std	Y+48, r26	; 0x30
    21c4:	b9 ab       	std	Y+49, r27	; 0x31

000021c6 <.LM294>:
    21c6:	6e a5       	ldd	r22, Y+46	; 0x2e
    21c8:	7f a5       	ldd	r23, Y+47	; 0x2f
    21ca:	88 a9       	ldd	r24, Y+48	; 0x30
    21cc:	99 a9       	ldd	r25, Y+49	; 0x31
    21ce:	0e 94 88 1c 	call	0x3910	; 0x3910 <__fixunssfsi>
    21d2:	26 96       	adiw	r28, 0x06	; 6
    21d4:	6c af       	std	Y+60, r22	; 0x3c
    21d6:	7d af       	std	Y+61, r23	; 0x3d
    21d8:	8e af       	std	Y+62, r24	; 0x3e
    21da:	9f af       	std	Y+63, r25	; 0x3f
    21dc:	26 97       	sbiw	r28, 0x06	; 6
    21de:	24 96       	adiw	r28, 0x04	; 4
    21e0:	ae ad       	ldd	r26, Y+62	; 0x3e
    21e2:	bf ad       	ldd	r27, Y+63	; 0x3f
    21e4:	24 97       	sbiw	r28, 0x04	; 4
    21e6:	bb 87       	std	Y+11, r27	; 0x0b
    21e8:	aa 87       	std	Y+10, r26	; 0x0a

000021ea <.LM295>:
    21ea:	10 c0       	rjmp	.+32     	; 0x220c <.L169>

000021ec <.L170>:
    21ec:	88 ec       	ldi	r24, 0xC8	; 200
    21ee:	90 e0       	ldi	r25, 0x00	; 0
    21f0:	9d 87       	std	Y+13, r25	; 0x0d
    21f2:	8c 87       	std	Y+12, r24	; 0x0c

000021f4 <.LM296>:
    21f4:	8c 85       	ldd	r24, Y+12	; 0x0c
    21f6:	9d 85       	ldd	r25, Y+13	; 0x0d

000021f8 <.L1^B29>:
    21f8:	01 97       	sbiw	r24, 0x01	; 1
    21fa:	f1 f7       	brne	.-4      	; 0x21f8 <.L1^B29>
    21fc:	9d 87       	std	Y+13, r25	; 0x0d
    21fe:	8c 87       	std	Y+12, r24	; 0x0c

00002200 <.LM297>:
	...

00002202 <.LM298>:
    2202:	8a 85       	ldd	r24, Y+10	; 0x0a
    2204:	9b 85       	ldd	r25, Y+11	; 0x0b
    2206:	01 97       	sbiw	r24, 0x01	; 1
    2208:	9b 87       	std	Y+11, r25	; 0x0b
    220a:	8a 87       	std	Y+10, r24	; 0x0a

0000220c <.L169>:
    220c:	8a 85       	ldd	r24, Y+10	; 0x0a
    220e:	9b 85       	ldd	r25, Y+11	; 0x0b
    2210:	00 97       	sbiw	r24, 0x00	; 0
    2212:	61 f7       	brne	.-40     	; 0x21ec <.L170>

00002214 <.LM300>:
    2214:	1d c0       	rjmp	.+58     	; 0x2250 <.L171>

00002216 <.L200>:
    2216:	6e 81       	ldd	r22, Y+6	; 0x06
    2218:	7f 81       	ldd	r23, Y+7	; 0x07
    221a:	88 85       	ldd	r24, Y+8	; 0x08
    221c:	99 85       	ldd	r25, Y+9	; 0x09
    221e:	0e 94 88 1c 	call	0x3910	; 0x3910 <__fixunssfsi>
    2222:	2a 96       	adiw	r28, 0x0a	; 10
    2224:	6c af       	std	Y+60, r22	; 0x3c
    2226:	7d af       	std	Y+61, r23	; 0x3d
    2228:	8e af       	std	Y+62, r24	; 0x3e
    222a:	9f af       	std	Y+63, r25	; 0x3f
    222c:	2a 97       	sbiw	r28, 0x0a	; 10
    222e:	28 96       	adiw	r28, 0x08	; 8
    2230:	ee ad       	ldd	r30, Y+62	; 0x3e
    2232:	ff ad       	ldd	r31, Y+63	; 0x3f
    2234:	28 97       	sbiw	r28, 0x08	; 8
    2236:	fb 87       	std	Y+11, r31	; 0x0b
    2238:	ea 87       	std	Y+10, r30	; 0x0a

0000223a <.L166>:
    223a:	8a 85       	ldd	r24, Y+10	; 0x0a
    223c:	9b 85       	ldd	r25, Y+11	; 0x0b
    223e:	9f 87       	std	Y+15, r25	; 0x0f
    2240:	8e 87       	std	Y+14, r24	; 0x0e

00002242 <.LM302>:
    2242:	8e 85       	ldd	r24, Y+14	; 0x0e
    2244:	9f 85       	ldd	r25, Y+15	; 0x0f

00002246 <.L1^B30>:
    2246:	01 97       	sbiw	r24, 0x01	; 1
    2248:	f1 f7       	brne	.-4      	; 0x2246 <.L1^B30>
    224a:	9f 87       	std	Y+15, r25	; 0x0f
    224c:	8e 87       	std	Y+14, r24	; 0x0e

0000224e <.LM303>:
	...

00002250 <.L171>:
    2250:	8c a5       	ldd	r24, Y+44	; 0x2c
    2252:	28 2f       	mov	r18, r24
    2254:	30 e0       	ldi	r19, 0x00	; 0
    2256:	4d e0       	ldi	r20, 0x0D	; 13
    2258:	42 9f       	mul	r20, r18
    225a:	c0 01       	movw	r24, r0
    225c:	43 9f       	mul	r20, r19
    225e:	90 0d       	add	r25, r0
    2260:	11 24       	eor	r1, r1
    2262:	8e 57       	subi	r24, 0x7E	; 126
    2264:	9f 4f       	sbci	r25, 0xFF	; 255
    2266:	dc 01       	movw	r26, r24
    2268:	8c 91       	ld	r24, X
    226a:	60 e0       	ldi	r22, 0x00	; 0
    226c:	0e 94 79 00 	call	0xf2	; 0xf2 <MDIO_enuSetPinValue>

00002270 <.LM305>:
    2270:	d8 c1       	rjmp	.+944    	; 0x2622 <.L205>

00002272 <.L161>:
    2272:	19 82       	std	Y+1, r1	; 0x01

00002274 <.LM307>:
    2274:	27 c0       	rjmp	.+78     	; 0x22c4 <.L173>

00002276 <.L174>:
    2276:	8d a5       	ldd	r24, Y+45	; 0x2d
    2278:	82 95       	swap	r24
    227a:	8f 70       	andi	r24, 0x0F	; 15
    227c:	88 2f       	mov	r24, r24
    227e:	90 e0       	ldi	r25, 0x00	; 0
    2280:	29 81       	ldd	r18, Y+1	; 0x01
    2282:	22 2f       	mov	r18, r18
    2284:	30 e0       	ldi	r19, 0x00	; 0
    2286:	02 c0       	rjmp	.+4      	; 0x228c <.L2^B5>

00002288 <.L1^B31>:
    2288:	95 95       	asr	r25
    228a:	87 95       	ror	r24

0000228c <.L2^B5>:
    228c:	2a 95       	dec	r18
    228e:	e2 f7       	brpl	.-8      	; 0x2288 <.L1^B31>

00002290 <.LM309>:
    2290:	78 2f       	mov	r23, r24
    2292:	71 70       	andi	r23, 0x01	; 1
    2294:	8c a5       	ldd	r24, Y+44	; 0x2c
    2296:	48 2f       	mov	r20, r24
    2298:	50 e0       	ldi	r21, 0x00	; 0
    229a:	89 81       	ldd	r24, Y+1	; 0x01
    229c:	88 2f       	mov	r24, r24
    229e:	90 e0       	ldi	r25, 0x00	; 0
    22a0:	6d e0       	ldi	r22, 0x0D	; 13
    22a2:	64 9f       	mul	r22, r20
    22a4:	90 01       	movw	r18, r0
    22a6:	65 9f       	mul	r22, r21
    22a8:	30 0d       	add	r19, r0
    22aa:	11 24       	eor	r1, r1
    22ac:	82 0f       	add	r24, r18
    22ae:	93 1f       	adc	r25, r19
    22b0:	88 58       	subi	r24, 0x88	; 136
    22b2:	9f 4f       	sbci	r25, 0xFF	; 255
    22b4:	fc 01       	movw	r30, r24
    22b6:	80 81       	ld	r24, Z
    22b8:	67 2f       	mov	r22, r23
    22ba:	0e 94 79 00 	call	0xf2	; 0xf2 <MDIO_enuSetPinValue>

000022be <.LM310>:
    22be:	89 81       	ldd	r24, Y+1	; 0x01
    22c0:	8f 5f       	subi	r24, 0xFF	; 255
    22c2:	89 83       	std	Y+1, r24	; 0x01

000022c4 <.L173>:
    22c4:	89 81       	ldd	r24, Y+1	; 0x01
    22c6:	83 30       	cpi	r24, 0x03	; 3
    22c8:	b1 f2       	breq	.-84     	; 0x2276 <.L174>
    22ca:	a8 f2       	brcs	.-86     	; 0x2276 <.L174>

000022cc <.LM312>:
    22cc:	8c a5       	ldd	r24, Y+44	; 0x2c
    22ce:	28 2f       	mov	r18, r24
    22d0:	30 e0       	ldi	r19, 0x00	; 0
    22d2:	4d e0       	ldi	r20, 0x0D	; 13
    22d4:	42 9f       	mul	r20, r18
    22d6:	c0 01       	movw	r24, r0
    22d8:	43 9f       	mul	r20, r19
    22da:	90 0d       	add	r25, r0
    22dc:	11 24       	eor	r1, r1
    22de:	8e 57       	subi	r24, 0x7E	; 126
    22e0:	9f 4f       	sbci	r25, 0xFF	; 255
    22e2:	dc 01       	movw	r26, r24
    22e4:	8c 91       	ld	r24, X
    22e6:	61 e0       	ldi	r22, 0x01	; 1
    22e8:	0e 94 79 00 	call	0xf2	; 0xf2 <MDIO_enuSetPinValue>
    22ec:	80 e0       	ldi	r24, 0x00	; 0
    22ee:	90 e0       	ldi	r25, 0x00	; 0
    22f0:	a0 e0       	ldi	r26, 0x00	; 0
    22f2:	b0 e4       	ldi	r27, 0x40	; 64
    22f4:	88 8b       	std	Y+16, r24	; 0x10
    22f6:	99 8b       	std	Y+17, r25	; 0x11
    22f8:	aa 8b       	std	Y+18, r26	; 0x12
    22fa:	bb 8b       	std	Y+19, r27	; 0x13

000022fc <.LM313>:
    22fc:	20 e0       	ldi	r18, 0x00	; 0
    22fe:	30 e0       	ldi	r19, 0x00	; 0
    2300:	4a ef       	ldi	r20, 0xFA	; 250
    2302:	54 e4       	ldi	r21, 0x44	; 68
    2304:	68 89       	ldd	r22, Y+16	; 0x10
    2306:	79 89       	ldd	r23, Y+17	; 0x11
    2308:	8a 89       	ldd	r24, Y+18	; 0x12
    230a:	9b 89       	ldd	r25, Y+19	; 0x13
    230c:	0e 94 6e 1d 	call	0x3adc	; 0x3adc <__mulsf3>
    2310:	2e 96       	adiw	r28, 0x0e	; 14
    2312:	6c af       	std	Y+60, r22	; 0x3c
    2314:	7d af       	std	Y+61, r23	; 0x3d
    2316:	8e af       	std	Y+62, r24	; 0x3e
    2318:	9f af       	std	Y+63, r25	; 0x3f
    231a:	2e 97       	sbiw	r28, 0x0e	; 14
    231c:	2e 96       	adiw	r28, 0x0e	; 14
    231e:	8c ad       	ldd	r24, Y+60	; 0x3c
    2320:	9d ad       	ldd	r25, Y+61	; 0x3d
    2322:	ae ad       	ldd	r26, Y+62	; 0x3e
    2324:	bf ad       	ldd	r27, Y+63	; 0x3f
    2326:	2e 97       	sbiw	r28, 0x0e	; 14
    2328:	8c 8b       	std	Y+20, r24	; 0x14
    232a:	9d 8b       	std	Y+21, r25	; 0x15
    232c:	ae 8b       	std	Y+22, r26	; 0x16
    232e:	bf 8b       	std	Y+23, r27	; 0x17

00002330 <.LM314>:
    2330:	20 e0       	ldi	r18, 0x00	; 0
    2332:	30 e0       	ldi	r19, 0x00	; 0
    2334:	40 e8       	ldi	r20, 0x80	; 128
    2336:	5f e3       	ldi	r21, 0x3F	; 63
    2338:	6c 89       	ldd	r22, Y+20	; 0x14
    233a:	7d 89       	ldd	r23, Y+21	; 0x15
    233c:	8e 89       	ldd	r24, Y+22	; 0x16
    233e:	9f 89       	ldd	r25, Y+23	; 0x17
    2340:	0e 94 11 1c 	call	0x3822	; 0x3822 <__cmpsf2>
    2344:	88 23       	and	r24, r24
    2346:	2c f4       	brge	.+10     	; 0x2352 <.L201>

00002348 <.LM315>:
    2348:	81 e0       	ldi	r24, 0x01	; 1
    234a:	90 e0       	ldi	r25, 0x00	; 0
    234c:	99 8f       	std	Y+25, r25	; 0x19
    234e:	88 8f       	std	Y+24, r24	; 0x18
    2350:	62 c0       	rjmp	.+196    	; 0x2416 <.L177>

00002352 <.L201>:
    2352:	20 e0       	ldi	r18, 0x00	; 0
    2354:	3f ef       	ldi	r19, 0xFF	; 255
    2356:	4f e7       	ldi	r20, 0x7F	; 127
    2358:	57 e4       	ldi	r21, 0x47	; 71
    235a:	6c 89       	ldd	r22, Y+20	; 0x14
    235c:	7d 89       	ldd	r23, Y+21	; 0x15
    235e:	8e 89       	ldd	r24, Y+22	; 0x16
    2360:	9f 89       	ldd	r25, Y+23	; 0x17
    2362:	0e 94 69 1d 	call	0x3ad2	; 0x3ad2 <__gesf2>
    2366:	88 23       	and	r24, r24
    2368:	09 f0       	breq	.+2      	; 0x236c <L0^A>

0000236a <L0^A>:
    236a:	0c f4       	brge	.+2      	; 0x236e <.LM317>

0000236c <L0^A>:
    236c:	42 c0       	rjmp	.+132    	; 0x23f2 <.L202>

0000236e <.LM317>:
    236e:	20 e0       	ldi	r18, 0x00	; 0
    2370:	30 e0       	ldi	r19, 0x00	; 0
    2372:	40 e2       	ldi	r20, 0x20	; 32
    2374:	51 e4       	ldi	r21, 0x41	; 65
    2376:	68 89       	ldd	r22, Y+16	; 0x10
    2378:	79 89       	ldd	r23, Y+17	; 0x11
    237a:	8a 89       	ldd	r24, Y+18	; 0x12
    237c:	9b 89       	ldd	r25, Y+19	; 0x13
    237e:	0e 94 6e 1d 	call	0x3adc	; 0x3adc <__mulsf3>
    2382:	62 96       	adiw	r28, 0x12	; 18
    2384:	6c af       	std	Y+60, r22	; 0x3c
    2386:	7d af       	std	Y+61, r23	; 0x3d
    2388:	8e af       	std	Y+62, r24	; 0x3e
    238a:	9f af       	std	Y+63, r25	; 0x3f
    238c:	62 97       	sbiw	r28, 0x12	; 18
    238e:	62 96       	adiw	r28, 0x12	; 18
    2390:	8c ad       	ldd	r24, Y+60	; 0x3c
    2392:	9d ad       	ldd	r25, Y+61	; 0x3d
    2394:	ae ad       	ldd	r26, Y+62	; 0x3e
    2396:	bf ad       	ldd	r27, Y+63	; 0x3f
    2398:	62 97       	sbiw	r28, 0x12	; 18
    239a:	8a ab       	std	Y+50, r24	; 0x32
    239c:	9b ab       	std	Y+51, r25	; 0x33
    239e:	ac ab       	std	Y+52, r26	; 0x34
    23a0:	bd ab       	std	Y+53, r27	; 0x35

000023a2 <.LM318>:
    23a2:	6a a9       	ldd	r22, Y+50	; 0x32
    23a4:	7b a9       	ldd	r23, Y+51	; 0x33
    23a6:	8c a9       	ldd	r24, Y+52	; 0x34
    23a8:	9d a9       	ldd	r25, Y+53	; 0x35
    23aa:	0e 94 88 1c 	call	0x3910	; 0x3910 <__fixunssfsi>
    23ae:	66 96       	adiw	r28, 0x16	; 22
    23b0:	6c af       	std	Y+60, r22	; 0x3c
    23b2:	7d af       	std	Y+61, r23	; 0x3d
    23b4:	8e af       	std	Y+62, r24	; 0x3e
    23b6:	9f af       	std	Y+63, r25	; 0x3f
    23b8:	66 97       	sbiw	r28, 0x16	; 22
    23ba:	64 96       	adiw	r28, 0x14	; 20
    23bc:	ae ad       	ldd	r26, Y+62	; 0x3e
    23be:	bf ad       	ldd	r27, Y+63	; 0x3f
    23c0:	64 97       	sbiw	r28, 0x14	; 20
    23c2:	b9 8f       	std	Y+25, r27	; 0x19
    23c4:	a8 8f       	std	Y+24, r26	; 0x18

000023c6 <.LM319>:
    23c6:	10 c0       	rjmp	.+32     	; 0x23e8 <.L180>

000023c8 <.L181>:
    23c8:	88 ec       	ldi	r24, 0xC8	; 200
    23ca:	90 e0       	ldi	r25, 0x00	; 0
    23cc:	9b 8f       	std	Y+27, r25	; 0x1b
    23ce:	8a 8f       	std	Y+26, r24	; 0x1a

000023d0 <.LM320>:
    23d0:	8a 8d       	ldd	r24, Y+26	; 0x1a
    23d2:	9b 8d       	ldd	r25, Y+27	; 0x1b

000023d4 <.L1^B32>:
    23d4:	01 97       	sbiw	r24, 0x01	; 1
    23d6:	f1 f7       	brne	.-4      	; 0x23d4 <.L1^B32>
    23d8:	9b 8f       	std	Y+27, r25	; 0x1b
    23da:	8a 8f       	std	Y+26, r24	; 0x1a

000023dc <.LM321>:
	...

000023de <.LM322>:
    23de:	88 8d       	ldd	r24, Y+24	; 0x18
    23e0:	99 8d       	ldd	r25, Y+25	; 0x19
    23e2:	01 97       	sbiw	r24, 0x01	; 1
    23e4:	99 8f       	std	Y+25, r25	; 0x19
    23e6:	88 8f       	std	Y+24, r24	; 0x18

000023e8 <.L180>:
    23e8:	88 8d       	ldd	r24, Y+24	; 0x18
    23ea:	99 8d       	ldd	r25, Y+25	; 0x19
    23ec:	00 97       	sbiw	r24, 0x00	; 0
    23ee:	61 f7       	brne	.-40     	; 0x23c8 <.L181>

000023f0 <.LM324>:
    23f0:	1d c0       	rjmp	.+58     	; 0x242c <.L182>

000023f2 <.L202>:
    23f2:	6c 89       	ldd	r22, Y+20	; 0x14
    23f4:	7d 89       	ldd	r23, Y+21	; 0x15
    23f6:	8e 89       	ldd	r24, Y+22	; 0x16
    23f8:	9f 89       	ldd	r25, Y+23	; 0x17
    23fa:	0e 94 88 1c 	call	0x3910	; 0x3910 <__fixunssfsi>
    23fe:	6a 96       	adiw	r28, 0x1a	; 26
    2400:	6c af       	std	Y+60, r22	; 0x3c
    2402:	7d af       	std	Y+61, r23	; 0x3d
    2404:	8e af       	std	Y+62, r24	; 0x3e
    2406:	9f af       	std	Y+63, r25	; 0x3f
    2408:	6a 97       	sbiw	r28, 0x1a	; 26
    240a:	68 96       	adiw	r28, 0x18	; 24
    240c:	ee ad       	ldd	r30, Y+62	; 0x3e
    240e:	ff ad       	ldd	r31, Y+63	; 0x3f
    2410:	68 97       	sbiw	r28, 0x18	; 24
    2412:	f9 8f       	std	Y+25, r31	; 0x19
    2414:	e8 8f       	std	Y+24, r30	; 0x18

00002416 <.L177>:
    2416:	88 8d       	ldd	r24, Y+24	; 0x18
    2418:	99 8d       	ldd	r25, Y+25	; 0x19
    241a:	9d 8f       	std	Y+29, r25	; 0x1d
    241c:	8c 8f       	std	Y+28, r24	; 0x1c

0000241e <.LM326>:
    241e:	8c 8d       	ldd	r24, Y+28	; 0x1c
    2420:	9d 8d       	ldd	r25, Y+29	; 0x1d

00002422 <.L1^B33>:
    2422:	01 97       	sbiw	r24, 0x01	; 1
    2424:	f1 f7       	brne	.-4      	; 0x2422 <.L1^B33>
    2426:	9d 8f       	std	Y+29, r25	; 0x1d
    2428:	8c 8f       	std	Y+28, r24	; 0x1c

0000242a <.LM327>:
	...

0000242c <.L182>:
    242c:	8c a5       	ldd	r24, Y+44	; 0x2c
    242e:	28 2f       	mov	r18, r24
    2430:	30 e0       	ldi	r19, 0x00	; 0
    2432:	4d e0       	ldi	r20, 0x0D	; 13
    2434:	42 9f       	mul	r20, r18
    2436:	c0 01       	movw	r24, r0
    2438:	43 9f       	mul	r20, r19
    243a:	90 0d       	add	r25, r0
    243c:	11 24       	eor	r1, r1
    243e:	8e 57       	subi	r24, 0x7E	; 126
    2440:	9f 4f       	sbci	r25, 0xFF	; 255
    2442:	dc 01       	movw	r26, r24
    2444:	8c 91       	ld	r24, X
    2446:	60 e0       	ldi	r22, 0x00	; 0
    2448:	0e 94 79 00 	call	0xf2	; 0xf2 <MDIO_enuSetPinValue>

0000244c <.LM329>:
    244c:	19 82       	std	Y+1, r1	; 0x01

0000244e <.LM330>:
    244e:	25 c0       	rjmp	.+74     	; 0x249a <.L183>

00002450 <.L184>:
    2450:	8d a5       	ldd	r24, Y+45	; 0x2d
    2452:	88 2f       	mov	r24, r24
    2454:	90 e0       	ldi	r25, 0x00	; 0
    2456:	29 81       	ldd	r18, Y+1	; 0x01
    2458:	22 2f       	mov	r18, r18
    245a:	30 e0       	ldi	r19, 0x00	; 0
    245c:	02 c0       	rjmp	.+4      	; 0x2462 <.L2^B6>

0000245e <.L1^B34>:
    245e:	95 95       	asr	r25
    2460:	87 95       	ror	r24

00002462 <.L2^B6>:
    2462:	2a 95       	dec	r18
    2464:	e2 f7       	brpl	.-8      	; 0x245e <.L1^B34>

00002466 <.LM332>:
    2466:	78 2f       	mov	r23, r24
    2468:	71 70       	andi	r23, 0x01	; 1
    246a:	8c a5       	ldd	r24, Y+44	; 0x2c
    246c:	48 2f       	mov	r20, r24
    246e:	50 e0       	ldi	r21, 0x00	; 0
    2470:	89 81       	ldd	r24, Y+1	; 0x01
    2472:	88 2f       	mov	r24, r24
    2474:	90 e0       	ldi	r25, 0x00	; 0
    2476:	6d e0       	ldi	r22, 0x0D	; 13
    2478:	64 9f       	mul	r22, r20
    247a:	90 01       	movw	r18, r0
    247c:	65 9f       	mul	r22, r21
    247e:	30 0d       	add	r19, r0
    2480:	11 24       	eor	r1, r1
    2482:	82 0f       	add	r24, r18
    2484:	93 1f       	adc	r25, r19
    2486:	88 58       	subi	r24, 0x88	; 136
    2488:	9f 4f       	sbci	r25, 0xFF	; 255
    248a:	fc 01       	movw	r30, r24
    248c:	80 81       	ld	r24, Z
    248e:	67 2f       	mov	r22, r23
    2490:	0e 94 79 00 	call	0xf2	; 0xf2 <MDIO_enuSetPinValue>

00002494 <.LM333>:
    2494:	89 81       	ldd	r24, Y+1	; 0x01
    2496:	8f 5f       	subi	r24, 0xFF	; 255
    2498:	89 83       	std	Y+1, r24	; 0x01

0000249a <.L183>:
    249a:	89 81       	ldd	r24, Y+1	; 0x01
    249c:	83 30       	cpi	r24, 0x03	; 3
    249e:	c1 f2       	breq	.-80     	; 0x2450 <.L184>
    24a0:	b8 f2       	brcs	.-82     	; 0x2450 <.L184>

000024a2 <.LM335>:
    24a2:	8c a5       	ldd	r24, Y+44	; 0x2c
    24a4:	28 2f       	mov	r18, r24
    24a6:	30 e0       	ldi	r19, 0x00	; 0
    24a8:	4d e0       	ldi	r20, 0x0D	; 13
    24aa:	42 9f       	mul	r20, r18
    24ac:	c0 01       	movw	r24, r0
    24ae:	43 9f       	mul	r20, r19
    24b0:	90 0d       	add	r25, r0
    24b2:	11 24       	eor	r1, r1
    24b4:	8e 57       	subi	r24, 0x7E	; 126
    24b6:	9f 4f       	sbci	r25, 0xFF	; 255
    24b8:	dc 01       	movw	r26, r24
    24ba:	8c 91       	ld	r24, X
    24bc:	61 e0       	ldi	r22, 0x01	; 1
    24be:	0e 94 79 00 	call	0xf2	; 0xf2 <MDIO_enuSetPinValue>
    24c2:	80 e0       	ldi	r24, 0x00	; 0
    24c4:	90 e0       	ldi	r25, 0x00	; 0
    24c6:	a0 e0       	ldi	r26, 0x00	; 0
    24c8:	b0 e4       	ldi	r27, 0x40	; 64
    24ca:	8e 8f       	std	Y+30, r24	; 0x1e
    24cc:	9f 8f       	std	Y+31, r25	; 0x1f
    24ce:	a8 a3       	std	Y+32, r26	; 0x20
    24d0:	b9 a3       	std	Y+33, r27	; 0x21

000024d2 <.LM336>:
    24d2:	20 e0       	ldi	r18, 0x00	; 0
    24d4:	30 e0       	ldi	r19, 0x00	; 0
    24d6:	4a ef       	ldi	r20, 0xFA	; 250
    24d8:	54 e4       	ldi	r21, 0x44	; 68
    24da:	6e 8d       	ldd	r22, Y+30	; 0x1e
    24dc:	7f 8d       	ldd	r23, Y+31	; 0x1f
    24de:	88 a1       	ldd	r24, Y+32	; 0x20
    24e0:	99 a1       	ldd	r25, Y+33	; 0x21
    24e2:	0e 94 6e 1d 	call	0x3adc	; 0x3adc <__mulsf3>
    24e6:	6e 96       	adiw	r28, 0x1e	; 30
    24e8:	6c af       	std	Y+60, r22	; 0x3c
    24ea:	7d af       	std	Y+61, r23	; 0x3d
    24ec:	8e af       	std	Y+62, r24	; 0x3e
    24ee:	9f af       	std	Y+63, r25	; 0x3f
    24f0:	6e 97       	sbiw	r28, 0x1e	; 30
    24f2:	6e 96       	adiw	r28, 0x1e	; 30
    24f4:	8c ad       	ldd	r24, Y+60	; 0x3c
    24f6:	9d ad       	ldd	r25, Y+61	; 0x3d
    24f8:	ae ad       	ldd	r26, Y+62	; 0x3e
    24fa:	bf ad       	ldd	r27, Y+63	; 0x3f
    24fc:	6e 97       	sbiw	r28, 0x1e	; 30
    24fe:	8a a3       	std	Y+34, r24	; 0x22
    2500:	9b a3       	std	Y+35, r25	; 0x23
    2502:	ac a3       	std	Y+36, r26	; 0x24
    2504:	bd a3       	std	Y+37, r27	; 0x25

00002506 <.LM337>:
    2506:	20 e0       	ldi	r18, 0x00	; 0
    2508:	30 e0       	ldi	r19, 0x00	; 0
    250a:	40 e8       	ldi	r20, 0x80	; 128
    250c:	5f e3       	ldi	r21, 0x3F	; 63
    250e:	6a a1       	ldd	r22, Y+34	; 0x22
    2510:	7b a1       	ldd	r23, Y+35	; 0x23
    2512:	8c a1       	ldd	r24, Y+36	; 0x24
    2514:	9d a1       	ldd	r25, Y+37	; 0x25
    2516:	0e 94 11 1c 	call	0x3822	; 0x3822 <__cmpsf2>
    251a:	88 23       	and	r24, r24
    251c:	2c f4       	brge	.+10     	; 0x2528 <.L203>

0000251e <.LM338>:
    251e:	81 e0       	ldi	r24, 0x01	; 1
    2520:	90 e0       	ldi	r25, 0x00	; 0
    2522:	9f a3       	std	Y+39, r25	; 0x27
    2524:	8e a3       	std	Y+38, r24	; 0x26
    2526:	62 c0       	rjmp	.+196    	; 0x25ec <.L187>

00002528 <.L203>:
    2528:	20 e0       	ldi	r18, 0x00	; 0
    252a:	3f ef       	ldi	r19, 0xFF	; 255
    252c:	4f e7       	ldi	r20, 0x7F	; 127
    252e:	57 e4       	ldi	r21, 0x47	; 71
    2530:	6a a1       	ldd	r22, Y+34	; 0x22
    2532:	7b a1       	ldd	r23, Y+35	; 0x23
    2534:	8c a1       	ldd	r24, Y+36	; 0x24
    2536:	9d a1       	ldd	r25, Y+37	; 0x25
    2538:	0e 94 69 1d 	call	0x3ad2	; 0x3ad2 <__gesf2>
    253c:	88 23       	and	r24, r24
    253e:	09 f0       	breq	.+2      	; 0x2542 <L0^A>

00002540 <L0^A>:
    2540:	0c f4       	brge	.+2      	; 0x2544 <.LM340>

00002542 <L0^A>:
    2542:	42 c0       	rjmp	.+132    	; 0x25c8 <.L204>

00002544 <.LM340>:
    2544:	20 e0       	ldi	r18, 0x00	; 0
    2546:	30 e0       	ldi	r19, 0x00	; 0
    2548:	40 e2       	ldi	r20, 0x20	; 32
    254a:	51 e4       	ldi	r21, 0x41	; 65
    254c:	6e 8d       	ldd	r22, Y+30	; 0x1e
    254e:	7f 8d       	ldd	r23, Y+31	; 0x1f
    2550:	88 a1       	ldd	r24, Y+32	; 0x20
    2552:	99 a1       	ldd	r25, Y+33	; 0x21
    2554:	0e 94 6e 1d 	call	0x3adc	; 0x3adc <__mulsf3>
    2558:	a2 96       	adiw	r28, 0x22	; 34
    255a:	6c af       	std	Y+60, r22	; 0x3c
    255c:	7d af       	std	Y+61, r23	; 0x3d
    255e:	8e af       	std	Y+62, r24	; 0x3e
    2560:	9f af       	std	Y+63, r25	; 0x3f
    2562:	a2 97       	sbiw	r28, 0x22	; 34
    2564:	a2 96       	adiw	r28, 0x22	; 34
    2566:	8c ad       	ldd	r24, Y+60	; 0x3c
    2568:	9d ad       	ldd	r25, Y+61	; 0x3d
    256a:	ae ad       	ldd	r26, Y+62	; 0x3e
    256c:	bf ad       	ldd	r27, Y+63	; 0x3f
    256e:	a2 97       	sbiw	r28, 0x22	; 34
    2570:	8e ab       	std	Y+54, r24	; 0x36
    2572:	9f ab       	std	Y+55, r25	; 0x37
    2574:	a8 af       	std	Y+56, r26	; 0x38
    2576:	b9 af       	std	Y+57, r27	; 0x39

00002578 <.LM341>:
    2578:	6e a9       	ldd	r22, Y+54	; 0x36
    257a:	7f a9       	ldd	r23, Y+55	; 0x37
    257c:	88 ad       	ldd	r24, Y+56	; 0x38
    257e:	99 ad       	ldd	r25, Y+57	; 0x39
    2580:	0e 94 88 1c 	call	0x3910	; 0x3910 <__fixunssfsi>
    2584:	a6 96       	adiw	r28, 0x26	; 38
    2586:	6c af       	std	Y+60, r22	; 0x3c
    2588:	7d af       	std	Y+61, r23	; 0x3d
    258a:	8e af       	std	Y+62, r24	; 0x3e
    258c:	9f af       	std	Y+63, r25	; 0x3f
    258e:	a6 97       	sbiw	r28, 0x26	; 38
    2590:	a4 96       	adiw	r28, 0x24	; 36
    2592:	ae ad       	ldd	r26, Y+62	; 0x3e
    2594:	bf ad       	ldd	r27, Y+63	; 0x3f
    2596:	a4 97       	sbiw	r28, 0x24	; 36
    2598:	bf a3       	std	Y+39, r27	; 0x27
    259a:	ae a3       	std	Y+38, r26	; 0x26

0000259c <.LM342>:
    259c:	10 c0       	rjmp	.+32     	; 0x25be <.L190>

0000259e <.L191>:
    259e:	88 ec       	ldi	r24, 0xC8	; 200
    25a0:	90 e0       	ldi	r25, 0x00	; 0
    25a2:	99 a7       	std	Y+41, r25	; 0x29
    25a4:	88 a7       	std	Y+40, r24	; 0x28

000025a6 <.LM343>:
    25a6:	88 a5       	ldd	r24, Y+40	; 0x28
    25a8:	99 a5       	ldd	r25, Y+41	; 0x29

000025aa <.L1^B35>:
    25aa:	01 97       	sbiw	r24, 0x01	; 1
    25ac:	f1 f7       	brne	.-4      	; 0x25aa <.L1^B35>
    25ae:	99 a7       	std	Y+41, r25	; 0x29
    25b0:	88 a7       	std	Y+40, r24	; 0x28

000025b2 <.LM344>:
	...

000025b4 <.LM345>:
    25b4:	8e a1       	ldd	r24, Y+38	; 0x26
    25b6:	9f a1       	ldd	r25, Y+39	; 0x27
    25b8:	01 97       	sbiw	r24, 0x01	; 1
    25ba:	9f a3       	std	Y+39, r25	; 0x27
    25bc:	8e a3       	std	Y+38, r24	; 0x26

000025be <.L190>:
    25be:	8e a1       	ldd	r24, Y+38	; 0x26
    25c0:	9f a1       	ldd	r25, Y+39	; 0x27
    25c2:	00 97       	sbiw	r24, 0x00	; 0
    25c4:	61 f7       	brne	.-40     	; 0x259e <.L191>

000025c6 <.LM347>:
    25c6:	1d c0       	rjmp	.+58     	; 0x2602 <.L192>

000025c8 <.L204>:
    25c8:	6a a1       	ldd	r22, Y+34	; 0x22
    25ca:	7b a1       	ldd	r23, Y+35	; 0x23
    25cc:	8c a1       	ldd	r24, Y+36	; 0x24
    25ce:	9d a1       	ldd	r25, Y+37	; 0x25
    25d0:	0e 94 88 1c 	call	0x3910	; 0x3910 <__fixunssfsi>
    25d4:	aa 96       	adiw	r28, 0x2a	; 42
    25d6:	6c af       	std	Y+60, r22	; 0x3c
    25d8:	7d af       	std	Y+61, r23	; 0x3d
    25da:	8e af       	std	Y+62, r24	; 0x3e
    25dc:	9f af       	std	Y+63, r25	; 0x3f
    25de:	aa 97       	sbiw	r28, 0x2a	; 42
    25e0:	a8 96       	adiw	r28, 0x28	; 40
    25e2:	ee ad       	ldd	r30, Y+62	; 0x3e
    25e4:	ff ad       	ldd	r31, Y+63	; 0x3f
    25e6:	a8 97       	sbiw	r28, 0x28	; 40
    25e8:	ff a3       	std	Y+39, r31	; 0x27
    25ea:	ee a3       	std	Y+38, r30	; 0x26

000025ec <.L187>:
    25ec:	8e a1       	ldd	r24, Y+38	; 0x26
    25ee:	9f a1       	ldd	r25, Y+39	; 0x27
    25f0:	9b a7       	std	Y+43, r25	; 0x2b
    25f2:	8a a7       	std	Y+42, r24	; 0x2a

000025f4 <.LM349>:
    25f4:	8a a5       	ldd	r24, Y+42	; 0x2a
    25f6:	9b a5       	ldd	r25, Y+43	; 0x2b

000025f8 <.L1^B36>:
    25f8:	01 97       	sbiw	r24, 0x01	; 1
    25fa:	f1 f7       	brne	.-4      	; 0x25f8 <.L1^B36>
    25fc:	9b a7       	std	Y+43, r25	; 0x2b
    25fe:	8a a7       	std	Y+42, r24	; 0x2a

00002600 <.LM350>:
	...

00002602 <.L192>:
    2602:	8c a5       	ldd	r24, Y+44	; 0x2c
    2604:	28 2f       	mov	r18, r24
    2606:	30 e0       	ldi	r19, 0x00	; 0
    2608:	4d e0       	ldi	r20, 0x0D	; 13
    260a:	42 9f       	mul	r20, r18
    260c:	c0 01       	movw	r24, r0
    260e:	43 9f       	mul	r20, r19
    2610:	90 0d       	add	r25, r0
    2612:	11 24       	eor	r1, r1
    2614:	8e 57       	subi	r24, 0x7E	; 126
    2616:	9f 4f       	sbci	r25, 0xFF	; 255
    2618:	dc 01       	movw	r26, r24
    261a:	8c 91       	ld	r24, X
    261c:	60 e0       	ldi	r22, 0x00	; 0
    261e:	0e 94 79 00 	call	0xf2	; 0xf2 <MDIO_enuSetPinValue>

00002622 <.L205>:
    2622:	00 00       	nop
    2624:	c7 59       	subi	r28, 0x97	; 151
    2626:	df 4f       	sbci	r29, 0xFF	; 255
    2628:	0f b6       	in	r0, 0x3f	; 63
    262a:	f8 94       	cli
    262c:	de bf       	out	0x3e, r29	; 62
    262e:	0f be       	out	0x3f, r0	; 63
    2630:	cd bf       	out	0x3d, r28	; 61
    2632:	df 91       	pop	r29
    2634:	cf 91       	pop	r28
    2636:	08 95       	ret

00002638 <HLCD_voidGoTo>:
    2638:	cf 93       	push	r28
    263a:	df 93       	push	r29
    263c:	00 d0       	rcall	.+0      	; 0x263e <L0^A>

0000263e <L0^A>:
    263e:	00 d0       	rcall	.+0      	; 0x2640 <L0^A>

00002640 <L0^A>:
    2640:	cd b7       	in	r28, 0x3d	; 61
    2642:	de b7       	in	r29, 0x3e	; 62
    2644:	8a 83       	std	Y+2, r24	; 0x02
    2646:	6b 83       	std	Y+3, r22	; 0x03
    2648:	4c 83       	std	Y+4, r20	; 0x04

0000264a <.LM354>:
    264a:	8b 81       	ldd	r24, Y+3	; 0x03
    264c:	82 95       	swap	r24
    264e:	88 0f       	add	r24, r24
    2650:	88 0f       	add	r24, r24
    2652:	80 7c       	andi	r24, 0xC0	; 192

00002654 <.LM355>:
    2654:	9c 81       	ldd	r25, Y+4	; 0x04
    2656:	89 0f       	add	r24, r25
    2658:	89 83       	std	Y+1, r24	; 0x01

0000265a <.LM356>:
    265a:	89 81       	ldd	r24, Y+1	; 0x01
    265c:	80 68       	ori	r24, 0x80	; 128
    265e:	89 83       	std	Y+1, r24	; 0x01

00002660 <.LM357>:
    2660:	69 81       	ldd	r22, Y+1	; 0x01
    2662:	8a 81       	ldd	r24, Y+2	; 0x02
    2664:	0e 94 13 10 	call	0x2026	; 0x2026 <HLCD_voidSendCommand>

00002668 <.LM358>:
    2668:	00 00       	nop
    266a:	0f 90       	pop	r0
    266c:	0f 90       	pop	r0
    266e:	0f 90       	pop	r0
    2670:	0f 90       	pop	r0
    2672:	df 91       	pop	r29
    2674:	cf 91       	pop	r28
    2676:	08 95       	ret

00002678 <HLCD_voidSendString>:
    2678:	cf 93       	push	r28
    267a:	df 93       	push	r29
    267c:	00 d0       	rcall	.+0      	; 0x267e <L0^A>

0000267e <L0^A>:
    267e:	00 d0       	rcall	.+0      	; 0x2680 <L0^A>

00002680 <L0^A>:
    2680:	cd b7       	in	r28, 0x3d	; 61
    2682:	de b7       	in	r29, 0x3e	; 62
    2684:	8a 83       	std	Y+2, r24	; 0x02
    2686:	7c 83       	std	Y+4, r23	; 0x04
    2688:	6b 83       	std	Y+3, r22	; 0x03

0000268a <.LM360>:
    268a:	19 82       	std	Y+1, r1	; 0x01

0000268c <.LM361>:
    268c:	19 82       	std	Y+1, r1	; 0x01

0000268e <.LM362>:
    268e:	10 c0       	rjmp	.+32     	; 0x26b0 <.L208>

00002690 <.L209>:
    2690:	89 81       	ldd	r24, Y+1	; 0x01
    2692:	88 2f       	mov	r24, r24
    2694:	90 e0       	ldi	r25, 0x00	; 0
    2696:	2b 81       	ldd	r18, Y+3	; 0x03
    2698:	3c 81       	ldd	r19, Y+4	; 0x04
    269a:	82 0f       	add	r24, r18
    269c:	93 1f       	adc	r25, r19

0000269e <.LM364>:
    269e:	fc 01       	movw	r30, r24
    26a0:	80 81       	ld	r24, Z
    26a2:	68 2f       	mov	r22, r24
    26a4:	8a 81       	ldd	r24, Y+2	; 0x02
    26a6:	0e 94 0a 0d 	call	0x1a14	; 0x1a14 <HLCD_voidSendData>

000026aa <.LM365>:
    26aa:	89 81       	ldd	r24, Y+1	; 0x01
    26ac:	8f 5f       	subi	r24, 0xFF	; 255
    26ae:	89 83       	std	Y+1, r24	; 0x01

000026b0 <.L208>:
    26b0:	89 81       	ldd	r24, Y+1	; 0x01
    26b2:	88 2f       	mov	r24, r24
    26b4:	90 e0       	ldi	r25, 0x00	; 0
    26b6:	2b 81       	ldd	r18, Y+3	; 0x03
    26b8:	3c 81       	ldd	r19, Y+4	; 0x04
    26ba:	82 0f       	add	r24, r18
    26bc:	93 1f       	adc	r25, r19
    26be:	fc 01       	movw	r30, r24
    26c0:	80 81       	ld	r24, Z

000026c2 <.LM367>:
    26c2:	88 23       	and	r24, r24
    26c4:	29 f7       	brne	.-54     	; 0x2690 <.L209>

000026c6 <.LM368>:
    26c6:	00 00       	nop
    26c8:	00 00       	nop
    26ca:	0f 90       	pop	r0
    26cc:	0f 90       	pop	r0
    26ce:	0f 90       	pop	r0
    26d0:	0f 90       	pop	r0
    26d2:	df 91       	pop	r29
    26d4:	cf 91       	pop	r28
    26d6:	08 95       	ret

000026d8 <HLCD_voidSendOneNumber>:
    26d8:	cf 93       	push	r28
    26da:	df 93       	push	r29
    26dc:	00 d0       	rcall	.+0      	; 0x26de <L0^A>

000026de <L0^A>:
    26de:	cd b7       	in	r28, 0x3d	; 61
    26e0:	de b7       	in	r29, 0x3e	; 62
    26e2:	89 83       	std	Y+1, r24	; 0x01
    26e4:	6a 83       	std	Y+2, r22	; 0x02

000026e6 <.LM370>:
    26e6:	8a 81       	ldd	r24, Y+2	; 0x02
    26e8:	80 5d       	subi	r24, 0xD0	; 208
    26ea:	68 2f       	mov	r22, r24
    26ec:	89 81       	ldd	r24, Y+1	; 0x01
    26ee:	0e 94 0a 0d 	call	0x1a14	; 0x1a14 <HLCD_voidSendData>

000026f2 <.LM371>:
    26f2:	00 00       	nop
    26f4:	0f 90       	pop	r0
    26f6:	0f 90       	pop	r0
    26f8:	df 91       	pop	r29
    26fa:	cf 91       	pop	r28
    26fc:	08 95       	ret

000026fe <HLCD_voidSendNumbers>:
    26fe:	cf 92       	push	r12
    2700:	df 92       	push	r13
    2702:	ef 92       	push	r14
    2704:	ff 92       	push	r15
    2706:	0f 93       	push	r16
    2708:	1f 93       	push	r17
    270a:	cf 93       	push	r28
    270c:	df 93       	push	r29
    270e:	cd b7       	in	r28, 0x3d	; 61
    2710:	de b7       	in	r29, 0x3e	; 62
    2712:	a1 97       	sbiw	r28, 0x21	; 33
    2714:	0f b6       	in	r0, 0x3f	; 63
    2716:	f8 94       	cli
    2718:	de bf       	out	0x3e, r29	; 62
    271a:	0f be       	out	0x3f, r0	; 63
    271c:	cd bf       	out	0x3d, r28	; 61
    271e:	8d 83       	std	Y+5, r24	; 0x05
    2720:	4e 83       	std	Y+6, r20	; 0x06
    2722:	5f 83       	std	Y+7, r21	; 0x07
    2724:	68 87       	std	Y+8, r22	; 0x08
    2726:	79 87       	std	Y+9, r23	; 0x09

00002728 <.LM373>:
    2728:	81 e0       	ldi	r24, 0x01	; 1
    272a:	90 e0       	ldi	r25, 0x00	; 0
    272c:	a0 e0       	ldi	r26, 0x00	; 0
    272e:	b0 e0       	ldi	r27, 0x00	; 0
    2730:	89 83       	std	Y+1, r24	; 0x01
    2732:	9a 83       	std	Y+2, r25	; 0x02
    2734:	ab 83       	std	Y+3, r26	; 0x03
    2736:	bc 83       	std	Y+4, r27	; 0x04

00002738 <.LM374>:
    2738:	8e 81       	ldd	r24, Y+6	; 0x06
    273a:	9f 81       	ldd	r25, Y+7	; 0x07
    273c:	a8 85       	ldd	r26, Y+8	; 0x08
    273e:	b9 85       	ldd	r27, Y+9	; 0x09
    2740:	00 97       	sbiw	r24, 0x00	; 0
    2742:	a1 05       	cpc	r26, r1
    2744:	b1 05       	cpc	r27, r1
    2746:	09 f4       	brne	.+2      	; 0x274a <.LM375>

00002748 <L0^A>:
    2748:	c0 c0       	rjmp	.+384    	; 0x28ca <.L212>

0000274a <.LM375>:
    274a:	8e 81       	ldd	r24, Y+6	; 0x06
    274c:	9f 81       	ldd	r25, Y+7	; 0x07
    274e:	a8 85       	ldd	r26, Y+8	; 0x08
    2750:	b9 85       	ldd	r27, Y+9	; 0x09
    2752:	bb 23       	and	r27, r27
    2754:	0c f0       	brlt	.+2      	; 0x2758 <.LM376>

00002756 <L0^A>:
    2756:	6a c0       	rjmp	.+212    	; 0x282c <.L214>

00002758 <.LM376>:
    2758:	6d e2       	ldi	r22, 0x2D	; 45
    275a:	8d 81       	ldd	r24, Y+5	; 0x05
    275c:	0e 94 0a 0d 	call	0x1a14	; 0x1a14 <HLCD_voidSendData>

00002760 <.LM377>:
    2760:	8e 81       	ldd	r24, Y+6	; 0x06
    2762:	9f 81       	ldd	r25, Y+7	; 0x07
    2764:	a8 85       	ldd	r26, Y+8	; 0x08
    2766:	b9 85       	ldd	r27, Y+9	; 0x09
    2768:	b0 95       	com	r27
    276a:	a0 95       	com	r26
    276c:	90 95       	com	r25
    276e:	81 95       	neg	r24
    2770:	9f 4f       	sbci	r25, 0xFF	; 255
    2772:	af 4f       	sbci	r26, 0xFF	; 255
    2774:	bf 4f       	sbci	r27, 0xFF	; 255
    2776:	8e 83       	std	Y+6, r24	; 0x06
    2778:	9f 83       	std	Y+7, r25	; 0x07
    277a:	a8 87       	std	Y+8, r26	; 0x08
    277c:	b9 87       	std	Y+9, r27	; 0x09

0000277e <.LM378>:
    277e:	56 c0       	rjmp	.+172    	; 0x282c <.L214>

00002780 <.L215>:
    2780:	49 81       	ldd	r20, Y+1	; 0x01
    2782:	5a 81       	ldd	r21, Y+2	; 0x02
    2784:	6b 81       	ldd	r22, Y+3	; 0x03
    2786:	7c 81       	ldd	r23, Y+4	; 0x04
    2788:	db 01       	movw	r26, r22
    278a:	ca 01       	movw	r24, r20
    278c:	88 0f       	add	r24, r24
    278e:	99 1f       	adc	r25, r25
    2790:	aa 1f       	adc	r26, r26
    2792:	bb 1f       	adc	r27, r27
    2794:	88 0f       	add	r24, r24
    2796:	99 1f       	adc	r25, r25
    2798:	aa 1f       	adc	r26, r26
    279a:	bb 1f       	adc	r27, r27
    279c:	84 0f       	add	r24, r20
    279e:	95 1f       	adc	r25, r21
    27a0:	a6 1f       	adc	r26, r22
    27a2:	b7 1f       	adc	r27, r23
    27a4:	88 0f       	add	r24, r24
    27a6:	99 1f       	adc	r25, r25
    27a8:	aa 1f       	adc	r26, r26
    27aa:	bb 1f       	adc	r27, r27
    27ac:	6c 01       	movw	r12, r24
    27ae:	7d 01       	movw	r14, r26

000027b0 <.LM380>:
    27b0:	8e 81       	ldd	r24, Y+6	; 0x06
    27b2:	9f 81       	ldd	r25, Y+7	; 0x07
    27b4:	a8 85       	ldd	r26, Y+8	; 0x08
    27b6:	b9 85       	ldd	r27, Y+9	; 0x09
    27b8:	8a 87       	std	Y+10, r24	; 0x0a
    27ba:	9b 87       	std	Y+11, r25	; 0x0b
    27bc:	ac 87       	std	Y+12, r26	; 0x0c
    27be:	bd 87       	std	Y+13, r27	; 0x0d
    27c0:	0a e0       	ldi	r16, 0x0A	; 10
    27c2:	10 e0       	ldi	r17, 0x00	; 0
    27c4:	20 e0       	ldi	r18, 0x00	; 0
    27c6:	30 e0       	ldi	r19, 0x00	; 0
    27c8:	6a 85       	ldd	r22, Y+10	; 0x0a
    27ca:	7b 85       	ldd	r23, Y+11	; 0x0b
    27cc:	8c 85       	ldd	r24, Y+12	; 0x0c
    27ce:	9d 85       	ldd	r25, Y+13	; 0x0d
    27d0:	a9 01       	movw	r20, r18
    27d2:	98 01       	movw	r18, r16
    27d4:	0e 94 f2 1b 	call	0x37e4	; 0x37e4 <__divmodsi4>
    27d8:	6e 87       	std	Y+14, r22	; 0x0e
    27da:	7f 87       	std	Y+15, r23	; 0x0f
    27dc:	88 8b       	std	Y+16, r24	; 0x10
    27de:	99 8b       	std	Y+17, r25	; 0x11
    27e0:	8e 85       	ldd	r24, Y+14	; 0x0e
    27e2:	9f 85       	ldd	r25, Y+15	; 0x0f
    27e4:	a8 89       	ldd	r26, Y+16	; 0x10
    27e6:	b9 89       	ldd	r27, Y+17	; 0x11

000027e8 <.LM381>:
    27e8:	8c 0d       	add	r24, r12
    27ea:	9d 1d       	adc	r25, r13
    27ec:	ae 1d       	adc	r26, r14
    27ee:	bf 1d       	adc	r27, r15
    27f0:	89 83       	std	Y+1, r24	; 0x01
    27f2:	9a 83       	std	Y+2, r25	; 0x02
    27f4:	ab 83       	std	Y+3, r26	; 0x03
    27f6:	bc 83       	std	Y+4, r27	; 0x04

000027f8 <.LM382>:
    27f8:	8e 81       	ldd	r24, Y+6	; 0x06
    27fa:	9f 81       	ldd	r25, Y+7	; 0x07
    27fc:	a8 85       	ldd	r26, Y+8	; 0x08
    27fe:	b9 85       	ldd	r27, Y+9	; 0x09
    2800:	8a 8b       	std	Y+18, r24	; 0x12
    2802:	9b 8b       	std	Y+19, r25	; 0x13
    2804:	ac 8b       	std	Y+20, r26	; 0x14
    2806:	bd 8b       	std	Y+21, r27	; 0x15
    2808:	0a e0       	ldi	r16, 0x0A	; 10
    280a:	10 e0       	ldi	r17, 0x00	; 0
    280c:	20 e0       	ldi	r18, 0x00	; 0
    280e:	30 e0       	ldi	r19, 0x00	; 0
    2810:	6a 89       	ldd	r22, Y+18	; 0x12
    2812:	7b 89       	ldd	r23, Y+19	; 0x13
    2814:	8c 89       	ldd	r24, Y+20	; 0x14
    2816:	9d 89       	ldd	r25, Y+21	; 0x15
    2818:	a9 01       	movw	r20, r18
    281a:	98 01       	movw	r18, r16
    281c:	0e 94 f2 1b 	call	0x37e4	; 0x37e4 <__divmodsi4>
    2820:	da 01       	movw	r26, r20
    2822:	c9 01       	movw	r24, r18
    2824:	8e 83       	std	Y+6, r24	; 0x06
    2826:	9f 83       	std	Y+7, r25	; 0x07
    2828:	a8 87       	std	Y+8, r26	; 0x08
    282a:	b9 87       	std	Y+9, r27	; 0x09

0000282c <.L214>:
    282c:	8e 81       	ldd	r24, Y+6	; 0x06
    282e:	9f 81       	ldd	r25, Y+7	; 0x07
    2830:	a8 85       	ldd	r26, Y+8	; 0x08
    2832:	b9 85       	ldd	r27, Y+9	; 0x09
    2834:	00 97       	sbiw	r24, 0x00	; 0
    2836:	a1 05       	cpc	r26, r1
    2838:	b1 05       	cpc	r27, r1
    283a:	09 f0       	breq	.+2      	; 0x283e <.LM384>

0000283c <L0^A>:
    283c:	a1 cf       	rjmp	.-190    	; 0x2780 <.L215>

0000283e <.LM384>:
    283e:	3a c0       	rjmp	.+116    	; 0x28b4 <.L216>

00002840 <.L217>:
    2840:	89 81       	ldd	r24, Y+1	; 0x01
    2842:	9a 81       	ldd	r25, Y+2	; 0x02
    2844:	ab 81       	ldd	r26, Y+3	; 0x03
    2846:	bc 81       	ldd	r27, Y+4	; 0x04
    2848:	8e 8b       	std	Y+22, r24	; 0x16
    284a:	9f 8b       	std	Y+23, r25	; 0x17
    284c:	a8 8f       	std	Y+24, r26	; 0x18
    284e:	b9 8f       	std	Y+25, r27	; 0x19
    2850:	0a e0       	ldi	r16, 0x0A	; 10
    2852:	10 e0       	ldi	r17, 0x00	; 0
    2854:	20 e0       	ldi	r18, 0x00	; 0
    2856:	30 e0       	ldi	r19, 0x00	; 0
    2858:	6e 89       	ldd	r22, Y+22	; 0x16
    285a:	7f 89       	ldd	r23, Y+23	; 0x17
    285c:	88 8d       	ldd	r24, Y+24	; 0x18
    285e:	99 8d       	ldd	r25, Y+25	; 0x19
    2860:	a9 01       	movw	r20, r18
    2862:	98 01       	movw	r18, r16
    2864:	0e 94 d0 1b 	call	0x37a0	; 0x37a0 <__udivmodsi4>
    2868:	6a 8f       	std	Y+26, r22	; 0x1a
    286a:	7b 8f       	std	Y+27, r23	; 0x1b
    286c:	8c 8f       	std	Y+28, r24	; 0x1c
    286e:	9d 8f       	std	Y+29, r25	; 0x1d
    2870:	8a 8d       	ldd	r24, Y+26	; 0x1a
    2872:	9b 8d       	ldd	r25, Y+27	; 0x1b
    2874:	ac 8d       	ldd	r26, Y+28	; 0x1c
    2876:	bd 8d       	ldd	r27, Y+29	; 0x1d

00002878 <.LM386>:
    2878:	68 2f       	mov	r22, r24
    287a:	8d 81       	ldd	r24, Y+5	; 0x05
    287c:	0e 94 6c 13 	call	0x26d8	; 0x26d8 <HLCD_voidSendOneNumber>

00002880 <.LM387>:
    2880:	89 81       	ldd	r24, Y+1	; 0x01
    2882:	9a 81       	ldd	r25, Y+2	; 0x02
    2884:	ab 81       	ldd	r26, Y+3	; 0x03
    2886:	bc 81       	ldd	r27, Y+4	; 0x04
    2888:	8e 8f       	std	Y+30, r24	; 0x1e
    288a:	9f 8f       	std	Y+31, r25	; 0x1f
    288c:	a8 a3       	std	Y+32, r26	; 0x20
    288e:	b9 a3       	std	Y+33, r27	; 0x21
    2890:	0a e0       	ldi	r16, 0x0A	; 10
    2892:	10 e0       	ldi	r17, 0x00	; 0
    2894:	20 e0       	ldi	r18, 0x00	; 0
    2896:	30 e0       	ldi	r19, 0x00	; 0
    2898:	6e 8d       	ldd	r22, Y+30	; 0x1e
    289a:	7f 8d       	ldd	r23, Y+31	; 0x1f
    289c:	88 a1       	ldd	r24, Y+32	; 0x20
    289e:	99 a1       	ldd	r25, Y+33	; 0x21
    28a0:	a9 01       	movw	r20, r18
    28a2:	98 01       	movw	r18, r16
    28a4:	0e 94 d0 1b 	call	0x37a0	; 0x37a0 <__udivmodsi4>
    28a8:	da 01       	movw	r26, r20
    28aa:	c9 01       	movw	r24, r18
    28ac:	89 83       	std	Y+1, r24	; 0x01
    28ae:	9a 83       	std	Y+2, r25	; 0x02
    28b0:	ab 83       	std	Y+3, r26	; 0x03
    28b2:	bc 83       	std	Y+4, r27	; 0x04

000028b4 <.L216>:
    28b4:	89 81       	ldd	r24, Y+1	; 0x01
    28b6:	9a 81       	ldd	r25, Y+2	; 0x02
    28b8:	ab 81       	ldd	r26, Y+3	; 0x03
    28ba:	bc 81       	ldd	r27, Y+4	; 0x04
    28bc:	81 30       	cpi	r24, 0x01	; 1
    28be:	91 05       	cpc	r25, r1
    28c0:	a1 05       	cpc	r26, r1
    28c2:	b1 05       	cpc	r27, r1
    28c4:	09 f0       	breq	.+2      	; 0x28c8 <.LM389>

000028c6 <L0^A>:
    28c6:	bc cf       	rjmp	.-136    	; 0x2840 <.L217>

000028c8 <.LM389>:
    28c8:	04 c0       	rjmp	.+8      	; 0x28d2 <.L219>

000028ca <.L212>:
    28ca:	60 e0       	ldi	r22, 0x00	; 0
    28cc:	8d 81       	ldd	r24, Y+5	; 0x05
    28ce:	0e 94 6c 13 	call	0x26d8	; 0x26d8 <HLCD_voidSendOneNumber>

000028d2 <.L219>:
    28d2:	00 00       	nop
    28d4:	a1 96       	adiw	r28, 0x21	; 33
    28d6:	0f b6       	in	r0, 0x3f	; 63
    28d8:	f8 94       	cli
    28da:	de bf       	out	0x3e, r29	; 62
    28dc:	0f be       	out	0x3f, r0	; 63
    28de:	cd bf       	out	0x3d, r28	; 61
    28e0:	df 91       	pop	r29
    28e2:	cf 91       	pop	r28
    28e4:	1f 91       	pop	r17
    28e6:	0f 91       	pop	r16
    28e8:	ff 90       	pop	r15
    28ea:	ef 90       	pop	r14
    28ec:	df 90       	pop	r13
    28ee:	cf 90       	pop	r12
    28f0:	08 95       	ret

000028f2 <HSS_voidEnableSS>:
    28f2:	cf 93       	push	r28
    28f4:	df 93       	push	r29
    28f6:	0f 92       	push	r0
    28f8:	cd b7       	in	r28, 0x3d	; 61
    28fa:	de b7       	in	r29, 0x3e	; 62
    28fc:	89 83       	std	Y+1, r24	; 0x01

000028fe <.LM1>:
    28fe:	89 81       	ldd	r24, Y+1	; 0x01
    2900:	85 30       	cpi	r24, 0x05	; 5
    2902:	09 f0       	breq	.+2      	; 0x2906 <.LM2>

00002904 <L0^A>:
    2904:	c8 f5       	brcc	.+114    	; 0x2978 <.L4>

00002906 <.LM2>:
    2906:	89 81       	ldd	r24, Y+1	; 0x01
    2908:	28 2f       	mov	r18, r24
    290a:	30 e0       	ldi	r19, 0x00	; 0
    290c:	c9 01       	movw	r24, r18
    290e:	88 0f       	add	r24, r24
    2910:	99 1f       	adc	r25, r25
    2912:	88 0f       	add	r24, r24
    2914:	99 1f       	adc	r25, r25
    2916:	88 0f       	add	r24, r24
    2918:	99 1f       	adc	r25, r25
    291a:	82 0f       	add	r24, r18
    291c:	93 1f       	adc	r25, r19
    291e:	84 57       	subi	r24, 0x74	; 116
    2920:	9f 4f       	sbci	r25, 0xFF	; 255
    2922:	fc 01       	movw	r30, r24
    2924:	80 81       	ld	r24, Z

00002926 <.LM3>:
    2926:	81 30       	cpi	r24, 0x01	; 1
    2928:	a1 f4       	brne	.+40     	; 0x2952 <.L3>

0000292a <.LM4>:
    292a:	89 81       	ldd	r24, Y+1	; 0x01
    292c:	28 2f       	mov	r18, r24
    292e:	30 e0       	ldi	r19, 0x00	; 0
    2930:	c9 01       	movw	r24, r18
    2932:	88 0f       	add	r24, r24
    2934:	99 1f       	adc	r25, r25
    2936:	88 0f       	add	r24, r24
    2938:	99 1f       	adc	r25, r25
    293a:	88 0f       	add	r24, r24
    293c:	99 1f       	adc	r25, r25
    293e:	82 0f       	add	r24, r18
    2940:	93 1f       	adc	r25, r19
    2942:	83 57       	subi	r24, 0x73	; 115
    2944:	9f 4f       	sbci	r25, 0xFF	; 255
    2946:	fc 01       	movw	r30, r24
    2948:	80 81       	ld	r24, Z
    294a:	61 e0       	ldi	r22, 0x01	; 1
    294c:	0e 94 79 00 	call	0xf2	; 0xf2 <MDIO_enuSetPinValue>

00002950 <.LM5>:
    2950:	13 c0       	rjmp	.+38     	; 0x2978 <.L4>

00002952 <.L3>:
    2952:	89 81       	ldd	r24, Y+1	; 0x01
    2954:	28 2f       	mov	r18, r24
    2956:	30 e0       	ldi	r19, 0x00	; 0
    2958:	c9 01       	movw	r24, r18
    295a:	88 0f       	add	r24, r24
    295c:	99 1f       	adc	r25, r25
    295e:	88 0f       	add	r24, r24
    2960:	99 1f       	adc	r25, r25
    2962:	88 0f       	add	r24, r24
    2964:	99 1f       	adc	r25, r25
    2966:	82 0f       	add	r24, r18
    2968:	93 1f       	adc	r25, r19
    296a:	83 57       	subi	r24, 0x73	; 115
    296c:	9f 4f       	sbci	r25, 0xFF	; 255
    296e:	fc 01       	movw	r30, r24
    2970:	80 81       	ld	r24, Z
    2972:	60 e0       	ldi	r22, 0x00	; 0
    2974:	0e 94 79 00 	call	0xf2	; 0xf2 <MDIO_enuSetPinValue>

00002978 <.L4>:
    2978:	00 00       	nop
    297a:	0f 90       	pop	r0
    297c:	df 91       	pop	r29
    297e:	cf 91       	pop	r28
    2980:	08 95       	ret

00002982 <HSS_voidDisableSS>:
    2982:	cf 93       	push	r28
    2984:	df 93       	push	r29
    2986:	0f 92       	push	r0
    2988:	cd b7       	in	r28, 0x3d	; 61
    298a:	de b7       	in	r29, 0x3e	; 62
    298c:	89 83       	std	Y+1, r24	; 0x01

0000298e <.LM9>:
    298e:	89 81       	ldd	r24, Y+1	; 0x01
    2990:	85 30       	cpi	r24, 0x05	; 5
    2992:	09 f0       	breq	.+2      	; 0x2996 <.LM10>

00002994 <L0^A>:
    2994:	c8 f5       	brcc	.+114    	; 0x2a08 <.L8>

00002996 <.LM10>:
    2996:	89 81       	ldd	r24, Y+1	; 0x01
    2998:	28 2f       	mov	r18, r24
    299a:	30 e0       	ldi	r19, 0x00	; 0
    299c:	c9 01       	movw	r24, r18
    299e:	88 0f       	add	r24, r24
    29a0:	99 1f       	adc	r25, r25
    29a2:	88 0f       	add	r24, r24
    29a4:	99 1f       	adc	r25, r25
    29a6:	88 0f       	add	r24, r24
    29a8:	99 1f       	adc	r25, r25
    29aa:	82 0f       	add	r24, r18
    29ac:	93 1f       	adc	r25, r19
    29ae:	84 57       	subi	r24, 0x74	; 116
    29b0:	9f 4f       	sbci	r25, 0xFF	; 255
    29b2:	fc 01       	movw	r30, r24
    29b4:	80 81       	ld	r24, Z

000029b6 <.LM11>:
    29b6:	81 30       	cpi	r24, 0x01	; 1
    29b8:	a1 f4       	brne	.+40     	; 0x29e2 <.L7>

000029ba <.LM12>:
    29ba:	89 81       	ldd	r24, Y+1	; 0x01
    29bc:	28 2f       	mov	r18, r24
    29be:	30 e0       	ldi	r19, 0x00	; 0
    29c0:	c9 01       	movw	r24, r18
    29c2:	88 0f       	add	r24, r24
    29c4:	99 1f       	adc	r25, r25
    29c6:	88 0f       	add	r24, r24
    29c8:	99 1f       	adc	r25, r25
    29ca:	88 0f       	add	r24, r24
    29cc:	99 1f       	adc	r25, r25
    29ce:	82 0f       	add	r24, r18
    29d0:	93 1f       	adc	r25, r19
    29d2:	83 57       	subi	r24, 0x73	; 115
    29d4:	9f 4f       	sbci	r25, 0xFF	; 255
    29d6:	fc 01       	movw	r30, r24
    29d8:	80 81       	ld	r24, Z
    29da:	60 e0       	ldi	r22, 0x00	; 0
    29dc:	0e 94 79 00 	call	0xf2	; 0xf2 <MDIO_enuSetPinValue>

000029e0 <.LM13>:
    29e0:	13 c0       	rjmp	.+38     	; 0x2a08 <.L8>

000029e2 <.L7>:
    29e2:	89 81       	ldd	r24, Y+1	; 0x01
    29e4:	28 2f       	mov	r18, r24
    29e6:	30 e0       	ldi	r19, 0x00	; 0
    29e8:	c9 01       	movw	r24, r18
    29ea:	88 0f       	add	r24, r24
    29ec:	99 1f       	adc	r25, r25
    29ee:	88 0f       	add	r24, r24
    29f0:	99 1f       	adc	r25, r25
    29f2:	88 0f       	add	r24, r24
    29f4:	99 1f       	adc	r25, r25
    29f6:	82 0f       	add	r24, r18
    29f8:	93 1f       	adc	r25, r19
    29fa:	83 57       	subi	r24, 0x73	; 115
    29fc:	9f 4f       	sbci	r25, 0xFF	; 255
    29fe:	fc 01       	movw	r30, r24
    2a00:	80 81       	ld	r24, Z
    2a02:	61 e0       	ldi	r22, 0x01	; 1
    2a04:	0e 94 79 00 	call	0xf2	; 0xf2 <MDIO_enuSetPinValue>

00002a08 <.L8>:
    2a08:	00 00       	nop
    2a0a:	0f 90       	pop	r0
    2a0c:	df 91       	pop	r29
    2a0e:	cf 91       	pop	r28
    2a10:	08 95       	ret

00002a12 <HSS_voidSendNumber>:
    2a12:	cf 93       	push	r28
    2a14:	df 93       	push	r29
    2a16:	00 d0       	rcall	.+0      	; 0x2a18 <L0^A>

00002a18 <L0^A>:
    2a18:	0f 92       	push	r0
    2a1a:	cd b7       	in	r28, 0x3d	; 61
    2a1c:	de b7       	in	r29, 0x3e	; 62
    2a1e:	8a 83       	std	Y+2, r24	; 0x02
    2a20:	6b 83       	std	Y+3, r22	; 0x03

00002a22 <.LM17>:
    2a22:	19 82       	std	Y+1, r1	; 0x01

00002a24 <.LM18>:
    2a24:	8a 81       	ldd	r24, Y+2	; 0x02
    2a26:	85 30       	cpi	r24, 0x05	; 5
    2a28:	11 f0       	breq	.+4      	; 0x2a2e <.LM19>

00002a2a <L0^A>:
    2a2a:	08 f0       	brcs	.+2      	; 0x2a2e <.LM19>

00002a2c <L0^A>:
    2a2c:	83 c0       	rjmp	.+262    	; 0x2b34 <.L17>

00002a2e <.LM19>:
    2a2e:	8b 81       	ldd	r24, Y+3	; 0x03
    2a30:	89 30       	cpi	r24, 0x09	; 9
    2a32:	11 f0       	breq	.+4      	; 0x2a38 <.LM20>

00002a34 <L0^A>:
    2a34:	08 f0       	brcs	.+2      	; 0x2a38 <.LM20>

00002a36 <L0^A>:
    2a36:	7e c0       	rjmp	.+252    	; 0x2b34 <.L17>

00002a38 <.LM20>:
    2a38:	8a 81       	ldd	r24, Y+2	; 0x02
    2a3a:	28 2f       	mov	r18, r24
    2a3c:	30 e0       	ldi	r19, 0x00	; 0
    2a3e:	c9 01       	movw	r24, r18
    2a40:	88 0f       	add	r24, r24
    2a42:	99 1f       	adc	r25, r25
    2a44:	88 0f       	add	r24, r24
    2a46:	99 1f       	adc	r25, r25
    2a48:	88 0f       	add	r24, r24
    2a4a:	99 1f       	adc	r25, r25
    2a4c:	82 0f       	add	r24, r18
    2a4e:	93 1f       	adc	r25, r19
    2a50:	84 57       	subi	r24, 0x74	; 116
    2a52:	9f 4f       	sbci	r25, 0xFF	; 255
    2a54:	fc 01       	movw	r30, r24
    2a56:	80 81       	ld	r24, Z

00002a58 <.LM21>:
    2a58:	81 30       	cpi	r24, 0x01	; 1
    2a5a:	c9 f5       	brne	.+114    	; 0x2ace <.L11>

00002a5c <.LM22>:
    2a5c:	19 82       	std	Y+1, r1	; 0x01

00002a5e <.LM23>:
    2a5e:	32 c0       	rjmp	.+100    	; 0x2ac4 <.L12>

00002a60 <.L14>:
    2a60:	8b 81       	ldd	r24, Y+3	; 0x03
    2a62:	88 2f       	mov	r24, r24
    2a64:	90 e0       	ldi	r25, 0x00	; 0
    2a66:	85 54       	subi	r24, 0x45	; 69
    2a68:	9f 4f       	sbci	r25, 0xFF	; 255
    2a6a:	fc 01       	movw	r30, r24
    2a6c:	80 81       	ld	r24, Z
    2a6e:	88 2f       	mov	r24, r24
    2a70:	90 e0       	ldi	r25, 0x00	; 0
    2a72:	29 81       	ldd	r18, Y+1	; 0x01
    2a74:	22 2f       	mov	r18, r18
    2a76:	30 e0       	ldi	r19, 0x00	; 0
    2a78:	02 c0       	rjmp	.+4      	; 0x2a7e <.L2^B1>

00002a7a <.L1^B1>:
    2a7a:	95 95       	asr	r25
    2a7c:	87 95       	ror	r24

00002a7e <.L2^B1>:
    2a7e:	2a 95       	dec	r18
    2a80:	e2 f7       	brpl	.-8      	; 0x2a7a <.L1^B1>

00002a82 <.LM25>:
    2a82:	81 70       	andi	r24, 0x01	; 1
    2a84:	99 27       	eor	r25, r25

00002a86 <.LM26>:
    2a86:	21 e0       	ldi	r18, 0x01	; 1
    2a88:	00 97       	sbiw	r24, 0x00	; 0
    2a8a:	09 f0       	breq	.+2      	; 0x2a8e <.L13>
    2a8c:	20 e0       	ldi	r18, 0x00	; 0

00002a8e <.L13>:
    2a8e:	62 2f       	mov	r22, r18
    2a90:	8a 81       	ldd	r24, Y+2	; 0x02
    2a92:	28 2f       	mov	r18, r24
    2a94:	30 e0       	ldi	r19, 0x00	; 0
    2a96:	89 81       	ldd	r24, Y+1	; 0x01
    2a98:	48 2f       	mov	r20, r24
    2a9a:	50 e0       	ldi	r21, 0x00	; 0
    2a9c:	c9 01       	movw	r24, r18
    2a9e:	88 0f       	add	r24, r24
    2aa0:	99 1f       	adc	r25, r25
    2aa2:	88 0f       	add	r24, r24
    2aa4:	99 1f       	adc	r25, r25
    2aa6:	88 0f       	add	r24, r24
    2aa8:	99 1f       	adc	r25, r25
    2aaa:	82 0f       	add	r24, r18
    2aac:	93 1f       	adc	r25, r19
    2aae:	84 0f       	add	r24, r20
    2ab0:	95 1f       	adc	r25, r21
    2ab2:	8b 57       	subi	r24, 0x7B	; 123
    2ab4:	9f 4f       	sbci	r25, 0xFF	; 255
    2ab6:	fc 01       	movw	r30, r24
    2ab8:	80 81       	ld	r24, Z
    2aba:	0e 94 79 00 	call	0xf2	; 0xf2 <MDIO_enuSetPinValue>

00002abe <.LM27>:
    2abe:	89 81       	ldd	r24, Y+1	; 0x01
    2ac0:	8f 5f       	subi	r24, 0xFF	; 255
    2ac2:	89 83       	std	Y+1, r24	; 0x01

00002ac4 <.L12>:
    2ac4:	89 81       	ldd	r24, Y+1	; 0x01
    2ac6:	86 30       	cpi	r24, 0x06	; 6
    2ac8:	59 f2       	breq	.-106    	; 0x2a60 <.L14>
    2aca:	50 f2       	brcs	.-108    	; 0x2a60 <.L14>

00002acc <.LM29>:
    2acc:	33 c0       	rjmp	.+102    	; 0x2b34 <.L17>

00002ace <.L11>:
    2ace:	19 82       	std	Y+1, r1	; 0x01

00002ad0 <.LM31>:
    2ad0:	2d c0       	rjmp	.+90     	; 0x2b2c <.L15>

00002ad2 <.L16>:
    2ad2:	8b 81       	ldd	r24, Y+3	; 0x03
    2ad4:	88 2f       	mov	r24, r24
    2ad6:	90 e0       	ldi	r25, 0x00	; 0
    2ad8:	85 54       	subi	r24, 0x45	; 69
    2ada:	9f 4f       	sbci	r25, 0xFF	; 255
    2adc:	fc 01       	movw	r30, r24
    2ade:	80 81       	ld	r24, Z
    2ae0:	88 2f       	mov	r24, r24
    2ae2:	90 e0       	ldi	r25, 0x00	; 0
    2ae4:	29 81       	ldd	r18, Y+1	; 0x01
    2ae6:	22 2f       	mov	r18, r18
    2ae8:	30 e0       	ldi	r19, 0x00	; 0
    2aea:	02 c0       	rjmp	.+4      	; 0x2af0 <.L2^B2>

00002aec <.L1^B2>:
    2aec:	95 95       	asr	r25
    2aee:	87 95       	ror	r24

00002af0 <.L2^B2>:
    2af0:	2a 95       	dec	r18
    2af2:	e2 f7       	brpl	.-8      	; 0x2aec <.L1^B2>

00002af4 <.LM33>:
    2af4:	68 2f       	mov	r22, r24
    2af6:	61 70       	andi	r22, 0x01	; 1
    2af8:	8a 81       	ldd	r24, Y+2	; 0x02
    2afa:	28 2f       	mov	r18, r24
    2afc:	30 e0       	ldi	r19, 0x00	; 0
    2afe:	89 81       	ldd	r24, Y+1	; 0x01
    2b00:	48 2f       	mov	r20, r24
    2b02:	50 e0       	ldi	r21, 0x00	; 0
    2b04:	c9 01       	movw	r24, r18
    2b06:	88 0f       	add	r24, r24
    2b08:	99 1f       	adc	r25, r25
    2b0a:	88 0f       	add	r24, r24
    2b0c:	99 1f       	adc	r25, r25
    2b0e:	88 0f       	add	r24, r24
    2b10:	99 1f       	adc	r25, r25
    2b12:	82 0f       	add	r24, r18
    2b14:	93 1f       	adc	r25, r19
    2b16:	84 0f       	add	r24, r20
    2b18:	95 1f       	adc	r25, r21
    2b1a:	8b 57       	subi	r24, 0x7B	; 123
    2b1c:	9f 4f       	sbci	r25, 0xFF	; 255
    2b1e:	fc 01       	movw	r30, r24
    2b20:	80 81       	ld	r24, Z
    2b22:	0e 94 79 00 	call	0xf2	; 0xf2 <MDIO_enuSetPinValue>

00002b26 <.LM34>:
    2b26:	89 81       	ldd	r24, Y+1	; 0x01
    2b28:	8f 5f       	subi	r24, 0xFF	; 255
    2b2a:	89 83       	std	Y+1, r24	; 0x01

00002b2c <.L15>:
    2b2c:	89 81       	ldd	r24, Y+1	; 0x01
    2b2e:	86 30       	cpi	r24, 0x06	; 6
    2b30:	81 f2       	breq	.-96     	; 0x2ad2 <.L16>
    2b32:	78 f2       	brcs	.-98     	; 0x2ad2 <.L16>

00002b34 <.L17>:
    2b34:	00 00       	nop
    2b36:	0f 90       	pop	r0
    2b38:	0f 90       	pop	r0
    2b3a:	0f 90       	pop	r0
    2b3c:	df 91       	pop	r29
    2b3e:	cf 91       	pop	r28
    2b40:	08 95       	ret

00002b42 <MTIMER0_voidInit>:
    2b42:	cf 93       	push	r28
    2b44:	df 93       	push	r29
    2b46:	cd b7       	in	r28, 0x3d	; 61
    2b48:	de b7       	in	r29, 0x3e	; 62

00002b4a <.LM1>:
    2b4a:	83 e5       	ldi	r24, 0x53	; 83
    2b4c:	90 e0       	ldi	r25, 0x00	; 0
    2b4e:	fc 01       	movw	r30, r24
    2b50:	20 81       	ld	r18, Z
    2b52:	83 e5       	ldi	r24, 0x53	; 83
    2b54:	90 e0       	ldi	r25, 0x00	; 0
    2b56:	2f 7b       	andi	r18, 0xBF	; 191
    2b58:	fc 01       	movw	r30, r24
    2b5a:	20 83       	st	Z, r18

00002b5c <.LM2>:
    2b5c:	83 e5       	ldi	r24, 0x53	; 83
    2b5e:	90 e0       	ldi	r25, 0x00	; 0
    2b60:	fc 01       	movw	r30, r24
    2b62:	20 81       	ld	r18, Z
    2b64:	83 e5       	ldi	r24, 0x53	; 83
    2b66:	90 e0       	ldi	r25, 0x00	; 0
    2b68:	27 7f       	andi	r18, 0xF7	; 247
    2b6a:	fc 01       	movw	r30, r24
    2b6c:	20 83       	st	Z, r18

00002b6e <.LM3>:
    2b6e:	83 e5       	ldi	r24, 0x53	; 83
    2b70:	90 e0       	ldi	r25, 0x00	; 0
    2b72:	fc 01       	movw	r30, r24
    2b74:	20 81       	ld	r18, Z

00002b76 <.LM4>:
    2b76:	83 e5       	ldi	r24, 0x53	; 83
    2b78:	90 e0       	ldi	r25, 0x00	; 0

00002b7a <.LM5>:
    2b7a:	2f 7c       	andi	r18, 0xCF	; 207
    2b7c:	fc 01       	movw	r30, r24
    2b7e:	20 83       	st	Z, r18

00002b80 <.LM6>:
    2b80:	23 e5       	ldi	r18, 0x53	; 83
    2b82:	30 e0       	ldi	r19, 0x00	; 0
    2b84:	83 e5       	ldi	r24, 0x53	; 83
    2b86:	90 e0       	ldi	r25, 0x00	; 0
    2b88:	f9 01       	movw	r30, r18
    2b8a:	20 81       	ld	r18, Z

00002b8c <.LM7>:
    2b8c:	fc 01       	movw	r30, r24
    2b8e:	20 83       	st	Z, r18

00002b90 <.LM8>:
    2b90:	89 e5       	ldi	r24, 0x59	; 89
    2b92:	90 e0       	ldi	r25, 0x00	; 0
    2b94:	fc 01       	movw	r30, r24
    2b96:	20 81       	ld	r18, Z
    2b98:	89 e5       	ldi	r24, 0x59	; 89
    2b9a:	90 e0       	ldi	r25, 0x00	; 0
    2b9c:	2e 7f       	andi	r18, 0xFE	; 254
    2b9e:	fc 01       	movw	r30, r24
    2ba0:	20 83       	st	Z, r18

00002ba2 <.LM9>:
    2ba2:	89 e5       	ldi	r24, 0x59	; 89
    2ba4:	90 e0       	ldi	r25, 0x00	; 0
    2ba6:	fc 01       	movw	r30, r24
    2ba8:	20 81       	ld	r18, Z
    2baa:	89 e5       	ldi	r24, 0x59	; 89
    2bac:	90 e0       	ldi	r25, 0x00	; 0
    2bae:	2d 7f       	andi	r18, 0xFD	; 253
    2bb0:	fc 01       	movw	r30, r24
    2bb2:	20 83       	st	Z, r18

00002bb4 <.LM10>:
    2bb4:	82 e0       	ldi	r24, 0x02	; 2
    2bb6:	0e 94 e1 15 	call	0x2bc2	; 0x2bc2 <MTIMER0_voidStartTimer>

00002bba <.LM11>:
    2bba:	00 00       	nop
    2bbc:	df 91       	pop	r29
    2bbe:	cf 91       	pop	r28
    2bc0:	08 95       	ret

00002bc2 <MTIMER0_voidStartTimer>:
    2bc2:	cf 93       	push	r28
    2bc4:	df 93       	push	r29
    2bc6:	0f 92       	push	r0
    2bc8:	cd b7       	in	r28, 0x3d	; 61
    2bca:	de b7       	in	r29, 0x3e	; 62
    2bcc:	89 83       	std	Y+1, r24	; 0x01

00002bce <.LM13>:
    2bce:	89 81       	ldd	r24, Y+1	; 0x01
    2bd0:	87 30       	cpi	r24, 0x07	; 7
    2bd2:	09 f0       	breq	.+2      	; 0x2bd6 <.LM14>

00002bd4 <L0^A>:
    2bd4:	98 f4       	brcc	.+38     	; 0x2bfc <.L4>

00002bd6 <.LM14>:
    2bd6:	83 e5       	ldi	r24, 0x53	; 83
    2bd8:	90 e0       	ldi	r25, 0x00	; 0
    2bda:	fc 01       	movw	r30, r24
    2bdc:	20 81       	ld	r18, Z

00002bde <.LM15>:
    2bde:	83 e5       	ldi	r24, 0x53	; 83
    2be0:	90 e0       	ldi	r25, 0x00	; 0

00002be2 <.LM16>:
    2be2:	28 7f       	andi	r18, 0xF8	; 248
    2be4:	fc 01       	movw	r30, r24
    2be6:	20 83       	st	Z, r18

00002be8 <.LM17>:
    2be8:	83 e5       	ldi	r24, 0x53	; 83
    2bea:	90 e0       	ldi	r25, 0x00	; 0
    2bec:	fc 01       	movw	r30, r24
    2bee:	30 81       	ld	r19, Z
    2bf0:	83 e5       	ldi	r24, 0x53	; 83
    2bf2:	90 e0       	ldi	r25, 0x00	; 0

00002bf4 <.LM18>:
    2bf4:	29 81       	ldd	r18, Y+1	; 0x01
    2bf6:	23 2b       	or	r18, r19
    2bf8:	fc 01       	movw	r30, r24
    2bfa:	20 83       	st	Z, r18

00002bfc <.L4>:
    2bfc:	00 00       	nop
    2bfe:	0f 90       	pop	r0
    2c00:	df 91       	pop	r29
    2c02:	cf 91       	pop	r28
    2c04:	08 95       	ret

00002c06 <MTIMER0_voidStopTimer>:
    2c06:	cf 93       	push	r28
    2c08:	df 93       	push	r29
    2c0a:	cd b7       	in	r28, 0x3d	; 61
    2c0c:	de b7       	in	r29, 0x3e	; 62

00002c0e <.LM21>:
    2c0e:	83 e5       	ldi	r24, 0x53	; 83
    2c10:	90 e0       	ldi	r25, 0x00	; 0
    2c12:	fc 01       	movw	r30, r24
    2c14:	20 81       	ld	r18, Z

00002c16 <.LM22>:
    2c16:	83 e5       	ldi	r24, 0x53	; 83
    2c18:	90 e0       	ldi	r25, 0x00	; 0

00002c1a <.LM23>:
    2c1a:	28 7f       	andi	r18, 0xF8	; 248
    2c1c:	fc 01       	movw	r30, r24
    2c1e:	20 83       	st	Z, r18

00002c20 <.LM24>:
    2c20:	00 00       	nop
    2c22:	df 91       	pop	r29
    2c24:	cf 91       	pop	r28
    2c26:	08 95       	ret

00002c28 <MTIMER0_voidEnableOVFInterrupt>:
    2c28:	cf 93       	push	r28
    2c2a:	df 93       	push	r29
    2c2c:	cd b7       	in	r28, 0x3d	; 61
    2c2e:	de b7       	in	r29, 0x3e	; 62

00002c30 <.LM26>:
    2c30:	89 e5       	ldi	r24, 0x59	; 89
    2c32:	90 e0       	ldi	r25, 0x00	; 0
    2c34:	fc 01       	movw	r30, r24
    2c36:	20 81       	ld	r18, Z
    2c38:	89 e5       	ldi	r24, 0x59	; 89
    2c3a:	90 e0       	ldi	r25, 0x00	; 0
    2c3c:	21 60       	ori	r18, 0x01	; 1
    2c3e:	fc 01       	movw	r30, r24
    2c40:	20 83       	st	Z, r18

00002c42 <.LM27>:
    2c42:	00 00       	nop
    2c44:	df 91       	pop	r29
    2c46:	cf 91       	pop	r28
    2c48:	08 95       	ret

00002c4a <MTIMER0_voidDisableOVFInterrupt>:
    2c4a:	cf 93       	push	r28
    2c4c:	df 93       	push	r29
    2c4e:	cd b7       	in	r28, 0x3d	; 61
    2c50:	de b7       	in	r29, 0x3e	; 62

00002c52 <.LM29>:
    2c52:	89 e5       	ldi	r24, 0x59	; 89
    2c54:	90 e0       	ldi	r25, 0x00	; 0
    2c56:	fc 01       	movw	r30, r24
    2c58:	20 81       	ld	r18, Z
    2c5a:	89 e5       	ldi	r24, 0x59	; 89
    2c5c:	90 e0       	ldi	r25, 0x00	; 0
    2c5e:	2e 7f       	andi	r18, 0xFE	; 254
    2c60:	fc 01       	movw	r30, r24
    2c62:	20 83       	st	Z, r18

00002c64 <.LM30>:
    2c64:	00 00       	nop
    2c66:	df 91       	pop	r29
    2c68:	cf 91       	pop	r28
    2c6a:	08 95       	ret

00002c6c <MTIMER0_voidEnableCompareMatchInterrupt>:
    2c6c:	cf 93       	push	r28
    2c6e:	df 93       	push	r29
    2c70:	cd b7       	in	r28, 0x3d	; 61
    2c72:	de b7       	in	r29, 0x3e	; 62

00002c74 <.LM32>:
    2c74:	89 e5       	ldi	r24, 0x59	; 89
    2c76:	90 e0       	ldi	r25, 0x00	; 0
    2c78:	fc 01       	movw	r30, r24
    2c7a:	20 81       	ld	r18, Z
    2c7c:	89 e5       	ldi	r24, 0x59	; 89
    2c7e:	90 e0       	ldi	r25, 0x00	; 0
    2c80:	22 60       	ori	r18, 0x02	; 2
    2c82:	fc 01       	movw	r30, r24
    2c84:	20 83       	st	Z, r18

00002c86 <.LM33>:
    2c86:	00 00       	nop
    2c88:	df 91       	pop	r29
    2c8a:	cf 91       	pop	r28
    2c8c:	08 95       	ret

00002c8e <MTIMER0_voidDisableCompareMatchInterrupt>:
    2c8e:	cf 93       	push	r28
    2c90:	df 93       	push	r29
    2c92:	cd b7       	in	r28, 0x3d	; 61
    2c94:	de b7       	in	r29, 0x3e	; 62

00002c96 <.LM35>:
    2c96:	89 e5       	ldi	r24, 0x59	; 89
    2c98:	90 e0       	ldi	r25, 0x00	; 0
    2c9a:	fc 01       	movw	r30, r24
    2c9c:	20 81       	ld	r18, Z
    2c9e:	89 e5       	ldi	r24, 0x59	; 89
    2ca0:	90 e0       	ldi	r25, 0x00	; 0
    2ca2:	2d 7f       	andi	r18, 0xFD	; 253
    2ca4:	fc 01       	movw	r30, r24
    2ca6:	20 83       	st	Z, r18

00002ca8 <.LM36>:
    2ca8:	00 00       	nop
    2caa:	df 91       	pop	r29
    2cac:	cf 91       	pop	r28
    2cae:	08 95       	ret

00002cb0 <MTIMER0_voidSetOVRCallBack>:
    2cb0:	cf 93       	push	r28
    2cb2:	df 93       	push	r29
    2cb4:	00 d0       	rcall	.+0      	; 0x2cb6 <L0^A>

00002cb6 <L0^A>:
    2cb6:	cd b7       	in	r28, 0x3d	; 61
    2cb8:	de b7       	in	r29, 0x3e	; 62
    2cba:	9a 83       	std	Y+2, r25	; 0x02
    2cbc:	89 83       	std	Y+1, r24	; 0x01

00002cbe <.LM38>:
    2cbe:	89 81       	ldd	r24, Y+1	; 0x01
    2cc0:	9a 81       	ldd	r25, Y+2	; 0x02
    2cc2:	90 93 ff 00 	sts	0x00FF, r25	; 0x8000ff <TIMER0_OVRCallBack+0x1>
    2cc6:	80 93 fe 00 	sts	0x00FE, r24	; 0x8000fe <TIMER0_OVRCallBack>

00002cca <.LM39>:
    2cca:	00 00       	nop
    2ccc:	0f 90       	pop	r0
    2cce:	0f 90       	pop	r0
    2cd0:	df 91       	pop	r29
    2cd2:	cf 91       	pop	r28
    2cd4:	08 95       	ret

00002cd6 <MTIMER0_voidSetCompareMatchCallBack>:
    2cd6:	cf 93       	push	r28
    2cd8:	df 93       	push	r29
    2cda:	00 d0       	rcall	.+0      	; 0x2cdc <L0^A>

00002cdc <L0^A>:
    2cdc:	cd b7       	in	r28, 0x3d	; 61
    2cde:	de b7       	in	r29, 0x3e	; 62
    2ce0:	9a 83       	std	Y+2, r25	; 0x02
    2ce2:	89 83       	std	Y+1, r24	; 0x01

00002ce4 <.LM41>:
    2ce4:	89 81       	ldd	r24, Y+1	; 0x01
    2ce6:	9a 81       	ldd	r25, Y+2	; 0x02
    2ce8:	90 93 01 01 	sts	0x0101, r25	; 0x800101 <TIMER0_CompareMatchCallBack+0x1>
    2cec:	80 93 00 01 	sts	0x0100, r24	; 0x800100 <TIMER0_CompareMatchCallBack>

00002cf0 <.LM42>:
    2cf0:	00 00       	nop
    2cf2:	0f 90       	pop	r0
    2cf4:	0f 90       	pop	r0
    2cf6:	df 91       	pop	r29
    2cf8:	cf 91       	pop	r28
    2cfa:	08 95       	ret

00002cfc <MTIMER0_voidSetPreLoadValue>:
    2cfc:	cf 93       	push	r28
    2cfe:	df 93       	push	r29
    2d00:	0f 92       	push	r0
    2d02:	cd b7       	in	r28, 0x3d	; 61
    2d04:	de b7       	in	r29, 0x3e	; 62
    2d06:	89 83       	std	Y+1, r24	; 0x01

00002d08 <.LM44>:
    2d08:	82 e5       	ldi	r24, 0x52	; 82
    2d0a:	90 e0       	ldi	r25, 0x00	; 0

00002d0c <.LM45>:
    2d0c:	29 81       	ldd	r18, Y+1	; 0x01
    2d0e:	fc 01       	movw	r30, r24
    2d10:	20 83       	st	Z, r18

00002d12 <.LM46>:
    2d12:	00 00       	nop
    2d14:	0f 90       	pop	r0
    2d16:	df 91       	pop	r29
    2d18:	cf 91       	pop	r28
    2d1a:	08 95       	ret

00002d1c <MTIMER0_voidSetOCRValue>:
    2d1c:	cf 93       	push	r28
    2d1e:	df 93       	push	r29
    2d20:	0f 92       	push	r0
    2d22:	cd b7       	in	r28, 0x3d	; 61
    2d24:	de b7       	in	r29, 0x3e	; 62
    2d26:	89 83       	std	Y+1, r24	; 0x01

00002d28 <.LM48>:
    2d28:	8c e5       	ldi	r24, 0x5C	; 92
    2d2a:	90 e0       	ldi	r25, 0x00	; 0

00002d2c <.LM49>:
    2d2c:	29 81       	ldd	r18, Y+1	; 0x01
    2d2e:	fc 01       	movw	r30, r24
    2d30:	20 83       	st	Z, r18

00002d32 <.LM50>:
    2d32:	00 00       	nop
    2d34:	0f 90       	pop	r0
    2d36:	df 91       	pop	r29
    2d38:	cf 91       	pop	r28
    2d3a:	08 95       	ret

00002d3c <MTIMER0_uint8ReadTCNTValue>:
    2d3c:	cf 93       	push	r28
    2d3e:	df 93       	push	r29
    2d40:	cd b7       	in	r28, 0x3d	; 61
    2d42:	de b7       	in	r29, 0x3e	; 62

00002d44 <.LM52>:
    2d44:	82 e5       	ldi	r24, 0x52	; 82
    2d46:	90 e0       	ldi	r25, 0x00	; 0
    2d48:	fc 01       	movw	r30, r24
    2d4a:	80 81       	ld	r24, Z

00002d4c <.LM53>:
    2d4c:	df 91       	pop	r29
    2d4e:	cf 91       	pop	r28
    2d50:	08 95       	ret

00002d52 <MTIMER0_voidDelayinms>:
    2d52:	cf 93       	push	r28
    2d54:	df 93       	push	r29
    2d56:	cd b7       	in	r28, 0x3d	; 61
    2d58:	de b7       	in	r29, 0x3e	; 62
    2d5a:	ae 97       	sbiw	r28, 0x2e	; 46
    2d5c:	0f b6       	in	r0, 0x3f	; 63
    2d5e:	f8 94       	cli
    2d60:	de bf       	out	0x3e, r29	; 62
    2d62:	0f be       	out	0x3f, r0	; 63
    2d64:	cd bf       	out	0x3d, r28	; 61
    2d66:	6f 87       	std	Y+15, r22	; 0x0f
    2d68:	78 8b       	std	Y+16, r23	; 0x10
    2d6a:	89 8b       	std	Y+17, r24	; 0x11
    2d6c:	9a 8b       	std	Y+18, r25	; 0x12

00002d6e <.LM55>:
    2d6e:	88 e0       	ldi	r24, 0x08	; 8
    2d70:	90 e0       	ldi	r25, 0x00	; 0
    2d72:	9e 83       	std	Y+6, r25	; 0x06
    2d74:	8d 83       	std	Y+5, r24	; 0x05

00002d76 <.LM56>:
    2d76:	80 e4       	ldi	r24, 0x40	; 64
    2d78:	9f e1       	ldi	r25, 0x1F	; 31
    2d7a:	2d 81       	ldd	r18, Y+5	; 0x05
    2d7c:	3e 81       	ldd	r19, Y+6	; 0x06
    2d7e:	b9 01       	movw	r22, r18
    2d80:	0e 94 bc 1b 	call	0x3778	; 0x3778 <__udivmodhi4>
    2d84:	cb 01       	movw	r24, r22
    2d86:	89 2f       	mov	r24, r25
    2d88:	99 27       	eor	r25, r25
    2d8a:	9c 01       	movw	r18, r24
    2d8c:	40 e0       	ldi	r20, 0x00	; 0
    2d8e:	50 e0       	ldi	r21, 0x00	; 0
    2d90:	2b 8f       	std	Y+27, r18	; 0x1b
    2d92:	3c 8f       	std	Y+28, r19	; 0x1c
    2d94:	4d 8f       	std	Y+29, r20	; 0x1d
    2d96:	5e 8f       	std	Y+30, r21	; 0x1e
    2d98:	6b 8d       	ldd	r22, Y+27	; 0x1b
    2d9a:	7c 8d       	ldd	r23, Y+28	; 0x1c
    2d9c:	8d 8d       	ldd	r24, Y+29	; 0x1d
    2d9e:	9e 8d       	ldd	r25, Y+30	; 0x1e
    2da0:	0e 94 b7 1c 	call	0x396e	; 0x396e <__floatunsisf>
    2da4:	6f 8f       	std	Y+31, r22	; 0x1f
    2da6:	78 a3       	std	Y+32, r23	; 0x20
    2da8:	89 a3       	std	Y+33, r24	; 0x21
    2daa:	9a a3       	std	Y+34, r25	; 0x22
    2dac:	8f 8d       	ldd	r24, Y+31	; 0x1f
    2dae:	98 a1       	ldd	r25, Y+32	; 0x20
    2db0:	a9 a1       	ldd	r26, Y+33	; 0x21
    2db2:	ba a1       	ldd	r27, Y+34	; 0x22
    2db4:	8f 83       	std	Y+7, r24	; 0x07
    2db6:	98 87       	std	Y+8, r25	; 0x08
    2db8:	a9 87       	std	Y+9, r26	; 0x09
    2dba:	ba 87       	std	Y+10, r27	; 0x0a

00002dbc <.LM57>:
    2dbc:	2f 81       	ldd	r18, Y+7	; 0x07
    2dbe:	38 85       	ldd	r19, Y+8	; 0x08
    2dc0:	49 85       	ldd	r20, Y+9	; 0x09
    2dc2:	5a 85       	ldd	r21, Y+10	; 0x0a
    2dc4:	60 e0       	ldi	r22, 0x00	; 0
    2dc6:	70 e0       	ldi	r23, 0x00	; 0
    2dc8:	80 e8       	ldi	r24, 0x80	; 128
    2dca:	9f e3       	ldi	r25, 0x3F	; 63
    2dcc:	0e 94 16 1c 	call	0x382c	; 0x382c <__divsf3>
    2dd0:	6b a3       	std	Y+35, r22	; 0x23
    2dd2:	7c a3       	std	Y+36, r23	; 0x24
    2dd4:	8d a3       	std	Y+37, r24	; 0x25
    2dd6:	9e a3       	std	Y+38, r25	; 0x26
    2dd8:	2b a1       	ldd	r18, Y+35	; 0x23
    2dda:	3c a1       	ldd	r19, Y+36	; 0x24
    2ddc:	4d a1       	ldd	r20, Y+37	; 0x25
    2dde:	5e a1       	ldd	r21, Y+38	; 0x26
    2de0:	2b 87       	std	Y+11, r18	; 0x0b
    2de2:	3c 87       	std	Y+12, r19	; 0x0c
    2de4:	4d 87       	std	Y+13, r20	; 0x0d
    2de6:	5e 87       	std	Y+14, r21	; 0x0e

00002de8 <.LM58>:
    2de8:	6f 85       	ldd	r22, Y+15	; 0x0f
    2dea:	78 89       	ldd	r23, Y+16	; 0x10
    2dec:	89 89       	ldd	r24, Y+17	; 0x11
    2dee:	9a 89       	ldd	r25, Y+18	; 0x12
    2df0:	0e 94 b7 1c 	call	0x396e	; 0x396e <__floatunsisf>
    2df4:	6b 8b       	std	Y+19, r22	; 0x13
    2df6:	7c 8b       	std	Y+20, r23	; 0x14
    2df8:	8d 8b       	std	Y+21, r24	; 0x15
    2dfa:	9e 8b       	std	Y+22, r25	; 0x16
    2dfc:	2b 85       	ldd	r18, Y+11	; 0x0b
    2dfe:	3c 85       	ldd	r19, Y+12	; 0x0c
    2e00:	4d 85       	ldd	r20, Y+13	; 0x0d
    2e02:	5e 85       	ldd	r21, Y+14	; 0x0e
    2e04:	6b 89       	ldd	r22, Y+19	; 0x13
    2e06:	7c 89       	ldd	r23, Y+20	; 0x14
    2e08:	8d 89       	ldd	r24, Y+21	; 0x15
    2e0a:	9e 89       	ldd	r25, Y+22	; 0x16
    2e0c:	0e 94 16 1c 	call	0x382c	; 0x382c <__divsf3>
    2e10:	6f a3       	std	Y+39, r22	; 0x27
    2e12:	78 a7       	std	Y+40, r23	; 0x28
    2e14:	89 a7       	std	Y+41, r24	; 0x29
    2e16:	9a a7       	std	Y+42, r25	; 0x2a
    2e18:	8f a1       	ldd	r24, Y+39	; 0x27
    2e1a:	98 a5       	ldd	r25, Y+40	; 0x28
    2e1c:	a9 a5       	ldd	r26, Y+41	; 0x29
    2e1e:	ba a5       	ldd	r27, Y+42	; 0x2a
    2e20:	8f 8b       	std	Y+23, r24	; 0x17
    2e22:	98 8f       	std	Y+24, r25	; 0x18
    2e24:	a9 8f       	std	Y+25, r26	; 0x19
    2e26:	ba 8f       	std	Y+26, r27	; 0x1a

00002e28 <.LM59>:
    2e28:	6f 89       	ldd	r22, Y+23	; 0x17
    2e2a:	78 8d       	ldd	r23, Y+24	; 0x18
    2e2c:	89 8d       	ldd	r24, Y+25	; 0x19
    2e2e:	9a 8d       	ldd	r25, Y+26	; 0x1a
    2e30:	0e 94 88 1c 	call	0x3910	; 0x3910 <__fixunssfsi>
    2e34:	6b a7       	std	Y+43, r22	; 0x2b
    2e36:	7c a7       	std	Y+44, r23	; 0x2c
    2e38:	8d a7       	std	Y+45, r24	; 0x2d
    2e3a:	9e a7       	std	Y+46, r25	; 0x2e
    2e3c:	2b a5       	ldd	r18, Y+43	; 0x2b
    2e3e:	3c a5       	ldd	r19, Y+44	; 0x2c
    2e40:	4d a5       	ldd	r20, Y+45	; 0x2d
    2e42:	5e a5       	ldd	r21, Y+46	; 0x2e
    2e44:	29 83       	std	Y+1, r18	; 0x01
    2e46:	3a 83       	std	Y+2, r19	; 0x02
    2e48:	4b 83       	std	Y+3, r20	; 0x03
    2e4a:	5c 83       	std	Y+4, r21	; 0x04

00002e4c <.LM60>:
    2e4c:	89 81       	ldd	r24, Y+1	; 0x01
    2e4e:	9a 81       	ldd	r25, Y+2	; 0x02
    2e50:	ab 81       	ldd	r26, Y+3	; 0x03
    2e52:	bc 81       	ldd	r27, Y+4	; 0x04
    2e54:	99 27       	eor	r25, r25
    2e56:	aa 27       	eor	r26, r26
    2e58:	bb 27       	eor	r27, r27

00002e5a <.LM61>:
    2e5a:	00 97       	sbiw	r24, 0x00	; 0
    2e5c:	a1 05       	cpc	r26, r1
    2e5e:	b1 05       	cpc	r27, r1
    2e60:	79 f0       	breq	.+30     	; 0x2e80 <.L17>

00002e62 <.LM62>:
    2e62:	89 81       	ldd	r24, Y+1	; 0x01
    2e64:	81 95       	neg	r24
    2e66:	0e 94 7e 16 	call	0x2cfc	; 0x2cfc <MTIMER0_voidSetPreLoadValue>

00002e6a <.LM63>:
    2e6a:	89 81       	ldd	r24, Y+1	; 0x01
    2e6c:	9a 81       	ldd	r25, Y+2	; 0x02
    2e6e:	ab 81       	ldd	r26, Y+3	; 0x03
    2e70:	bc 81       	ldd	r27, Y+4	; 0x04
    2e72:	01 96       	adiw	r24, 0x01	; 1
    2e74:	a1 1d       	adc	r26, r1
    2e76:	b1 1d       	adc	r27, r1
    2e78:	89 83       	std	Y+1, r24	; 0x01
    2e7a:	9a 83       	std	Y+2, r25	; 0x02
    2e7c:	ab 83       	std	Y+3, r26	; 0x03
    2e7e:	bc 83       	std	Y+4, r27	; 0x04

00002e80 <.L17>:
    2e80:	82 e0       	ldi	r24, 0x02	; 2
    2e82:	0e 94 e1 15 	call	0x2bc2	; 0x2bc2 <MTIMER0_voidStartTimer>

00002e86 <.LM65>:
    2e86:	1f c0       	rjmp	.+62     	; 0x2ec6 <.L18>

00002e88 <.L20>:
	...

00002e8a <.L19>:
    2e8a:	88 e5       	ldi	r24, 0x58	; 88
    2e8c:	90 e0       	ldi	r25, 0x00	; 0
    2e8e:	dc 01       	movw	r26, r24
    2e90:	8c 91       	ld	r24, X
    2e92:	88 2f       	mov	r24, r24
    2e94:	90 e0       	ldi	r25, 0x00	; 0
    2e96:	81 70       	andi	r24, 0x01	; 1
    2e98:	99 27       	eor	r25, r25

00002e9a <.LM68>:
    2e9a:	00 97       	sbiw	r24, 0x00	; 0
    2e9c:	b1 f3       	breq	.-20     	; 0x2e8a <.L19>

00002e9e <.LM69>:
    2e9e:	88 e5       	ldi	r24, 0x58	; 88
    2ea0:	90 e0       	ldi	r25, 0x00	; 0
    2ea2:	fc 01       	movw	r30, r24
    2ea4:	20 81       	ld	r18, Z
    2ea6:	88 e5       	ldi	r24, 0x58	; 88
    2ea8:	90 e0       	ldi	r25, 0x00	; 0
    2eaa:	21 60       	ori	r18, 0x01	; 1
    2eac:	dc 01       	movw	r26, r24
    2eae:	2c 93       	st	X, r18

00002eb0 <.LM70>:
    2eb0:	89 81       	ldd	r24, Y+1	; 0x01
    2eb2:	9a 81       	ldd	r25, Y+2	; 0x02
    2eb4:	ab 81       	ldd	r26, Y+3	; 0x03
    2eb6:	bc 81       	ldd	r27, Y+4	; 0x04
    2eb8:	01 97       	sbiw	r24, 0x01	; 1
    2eba:	a1 09       	sbc	r26, r1
    2ebc:	b1 09       	sbc	r27, r1
    2ebe:	89 83       	std	Y+1, r24	; 0x01
    2ec0:	9a 83       	std	Y+2, r25	; 0x02
    2ec2:	ab 83       	std	Y+3, r26	; 0x03
    2ec4:	bc 83       	std	Y+4, r27	; 0x04

00002ec6 <.L18>:
    2ec6:	89 81       	ldd	r24, Y+1	; 0x01
    2ec8:	9a 81       	ldd	r25, Y+2	; 0x02
    2eca:	ab 81       	ldd	r26, Y+3	; 0x03
    2ecc:	bc 81       	ldd	r27, Y+4	; 0x04
    2ece:	00 97       	sbiw	r24, 0x00	; 0
    2ed0:	a1 05       	cpc	r26, r1
    2ed2:	b1 05       	cpc	r27, r1
    2ed4:	c9 f6       	brne	.-78     	; 0x2e88 <.L20>

00002ed6 <.LM72>:
    2ed6:	0e 94 03 16 	call	0x2c06	; 0x2c06 <MTIMER0_voidStopTimer>

00002eda <.LM73>:
    2eda:	00 00       	nop
    2edc:	ae 96       	adiw	r28, 0x2e	; 46
    2ede:	0f b6       	in	r0, 0x3f	; 63
    2ee0:	f8 94       	cli
    2ee2:	de bf       	out	0x3e, r29	; 62
    2ee4:	0f be       	out	0x3f, r0	; 63
    2ee6:	cd bf       	out	0x3d, r28	; 61
    2ee8:	df 91       	pop	r29
    2eea:	cf 91       	pop	r28
    2eec:	08 95       	ret

00002eee <__vector_11>:
    2eee:	1f 92       	push	r1
    2ef0:	0f 92       	push	r0
    2ef2:	0f b6       	in	r0, 0x3f	; 63
    2ef4:	0f 92       	push	r0
    2ef6:	11 24       	eor	r1, r1
    2ef8:	2f 93       	push	r18
    2efa:	3f 93       	push	r19
    2efc:	4f 93       	push	r20
    2efe:	5f 93       	push	r21
    2f00:	6f 93       	push	r22
    2f02:	7f 93       	push	r23
    2f04:	8f 93       	push	r24
    2f06:	9f 93       	push	r25
    2f08:	af 93       	push	r26
    2f0a:	bf 93       	push	r27
    2f0c:	ef 93       	push	r30
    2f0e:	ff 93       	push	r31
    2f10:	cf 93       	push	r28
    2f12:	df 93       	push	r29
    2f14:	cd b7       	in	r28, 0x3d	; 61
    2f16:	de b7       	in	r29, 0x3e	; 62

00002f18 <.LM75>:
    2f18:	80 91 fe 00 	lds	r24, 0x00FE	; 0x8000fe <TIMER0_OVRCallBack>
    2f1c:	90 91 ff 00 	lds	r25, 0x00FF	; 0x8000ff <TIMER0_OVRCallBack+0x1>

00002f20 <.LM76>:
    2f20:	00 97       	sbiw	r24, 0x00	; 0
    2f22:	31 f0       	breq	.+12     	; 0x2f30 <.L23>

00002f24 <.LM77>:
    2f24:	80 91 fe 00 	lds	r24, 0x00FE	; 0x8000fe <TIMER0_OVRCallBack>
    2f28:	90 91 ff 00 	lds	r25, 0x00FF	; 0x8000ff <TIMER0_OVRCallBack+0x1>
    2f2c:	fc 01       	movw	r30, r24
    2f2e:	09 95       	icall

00002f30 <.L23>:
    2f30:	00 00       	nop
    2f32:	df 91       	pop	r29
    2f34:	cf 91       	pop	r28
    2f36:	ff 91       	pop	r31
    2f38:	ef 91       	pop	r30
    2f3a:	bf 91       	pop	r27
    2f3c:	af 91       	pop	r26
    2f3e:	9f 91       	pop	r25
    2f40:	8f 91       	pop	r24
    2f42:	7f 91       	pop	r23
    2f44:	6f 91       	pop	r22
    2f46:	5f 91       	pop	r21
    2f48:	4f 91       	pop	r20
    2f4a:	3f 91       	pop	r19
    2f4c:	2f 91       	pop	r18
    2f4e:	0f 90       	pop	r0
    2f50:	0f be       	out	0x3f, r0	; 63
    2f52:	0f 90       	pop	r0
    2f54:	1f 90       	pop	r1
    2f56:	18 95       	reti

00002f58 <__vector_10>:
    2f58:	1f 92       	push	r1
    2f5a:	0f 92       	push	r0
    2f5c:	0f b6       	in	r0, 0x3f	; 63
    2f5e:	0f 92       	push	r0
    2f60:	11 24       	eor	r1, r1
    2f62:	2f 93       	push	r18
    2f64:	3f 93       	push	r19
    2f66:	4f 93       	push	r20
    2f68:	5f 93       	push	r21
    2f6a:	6f 93       	push	r22
    2f6c:	7f 93       	push	r23
    2f6e:	8f 93       	push	r24
    2f70:	9f 93       	push	r25
    2f72:	af 93       	push	r26
    2f74:	bf 93       	push	r27
    2f76:	ef 93       	push	r30
    2f78:	ff 93       	push	r31
    2f7a:	cf 93       	push	r28
    2f7c:	df 93       	push	r29
    2f7e:	cd b7       	in	r28, 0x3d	; 61
    2f80:	de b7       	in	r29, 0x3e	; 62

00002f82 <.LM80>:
    2f82:	80 91 00 01 	lds	r24, 0x0100	; 0x800100 <TIMER0_CompareMatchCallBack>
    2f86:	90 91 01 01 	lds	r25, 0x0101	; 0x800101 <TIMER0_CompareMatchCallBack+0x1>

00002f8a <.LM81>:
    2f8a:	00 97       	sbiw	r24, 0x00	; 0
    2f8c:	31 f0       	breq	.+12     	; 0x2f9a <.L26>

00002f8e <.LM82>:
    2f8e:	80 91 00 01 	lds	r24, 0x0100	; 0x800100 <TIMER0_CompareMatchCallBack>
    2f92:	90 91 01 01 	lds	r25, 0x0101	; 0x800101 <TIMER0_CompareMatchCallBack+0x1>
    2f96:	fc 01       	movw	r30, r24
    2f98:	09 95       	icall

00002f9a <.L26>:
    2f9a:	00 00       	nop
    2f9c:	df 91       	pop	r29
    2f9e:	cf 91       	pop	r28
    2fa0:	ff 91       	pop	r31
    2fa2:	ef 91       	pop	r30
    2fa4:	bf 91       	pop	r27
    2fa6:	af 91       	pop	r26
    2fa8:	9f 91       	pop	r25
    2faa:	8f 91       	pop	r24
    2fac:	7f 91       	pop	r23
    2fae:	6f 91       	pop	r22
    2fb0:	5f 91       	pop	r21
    2fb2:	4f 91       	pop	r20
    2fb4:	3f 91       	pop	r19
    2fb6:	2f 91       	pop	r18
    2fb8:	0f 90       	pop	r0
    2fba:	0f be       	out	0x3f, r0	; 63
    2fbc:	0f 90       	pop	r0
    2fbe:	1f 90       	pop	r1
    2fc0:	18 95       	reti

00002fc2 <MTIMER2_voidInit>:
    2fc2:	cf 93       	push	r28
    2fc4:	df 93       	push	r29
    2fc6:	cd b7       	in	r28, 0x3d	; 61
    2fc8:	de b7       	in	r29, 0x3e	; 62

00002fca <.LM1>:
    2fca:	85 e4       	ldi	r24, 0x45	; 69
    2fcc:	90 e0       	ldi	r25, 0x00	; 0
    2fce:	fc 01       	movw	r30, r24
    2fd0:	20 81       	ld	r18, Z
    2fd2:	85 e4       	ldi	r24, 0x45	; 69
    2fd4:	90 e0       	ldi	r25, 0x00	; 0
    2fd6:	2f 7b       	andi	r18, 0xBF	; 191
    2fd8:	fc 01       	movw	r30, r24
    2fda:	20 83       	st	Z, r18

00002fdc <.LM2>:
    2fdc:	85 e4       	ldi	r24, 0x45	; 69
    2fde:	90 e0       	ldi	r25, 0x00	; 0
    2fe0:	fc 01       	movw	r30, r24
    2fe2:	20 81       	ld	r18, Z
    2fe4:	85 e4       	ldi	r24, 0x45	; 69
    2fe6:	90 e0       	ldi	r25, 0x00	; 0
    2fe8:	27 7f       	andi	r18, 0xF7	; 247
    2fea:	fc 01       	movw	r30, r24
    2fec:	20 83       	st	Z, r18

00002fee <.LM3>:
    2fee:	82 e4       	ldi	r24, 0x42	; 66
    2ff0:	90 e0       	ldi	r25, 0x00	; 0
    2ff2:	fc 01       	movw	r30, r24
    2ff4:	20 81       	ld	r18, Z
    2ff6:	82 e4       	ldi	r24, 0x42	; 66
    2ff8:	90 e0       	ldi	r25, 0x00	; 0
    2ffa:	28 60       	ori	r18, 0x08	; 8
    2ffc:	fc 01       	movw	r30, r24
    2ffe:	20 83       	st	Z, r18

00003000 <.LM4>:
    3000:	89 e5       	ldi	r24, 0x59	; 89
    3002:	90 e0       	ldi	r25, 0x00	; 0
    3004:	fc 01       	movw	r30, r24
    3006:	20 81       	ld	r18, Z
    3008:	89 e5       	ldi	r24, 0x59	; 89
    300a:	90 e0       	ldi	r25, 0x00	; 0
    300c:	20 64       	ori	r18, 0x40	; 64
    300e:	fc 01       	movw	r30, r24
    3010:	20 83       	st	Z, r18

00003012 <.LM5>:
    3012:	89 e5       	ldi	r24, 0x59	; 89
    3014:	90 e0       	ldi	r25, 0x00	; 0
    3016:	fc 01       	movw	r30, r24
    3018:	20 81       	ld	r18, Z
    301a:	89 e5       	ldi	r24, 0x59	; 89
    301c:	90 e0       	ldi	r25, 0x00	; 0
    301e:	2f 77       	andi	r18, 0x7F	; 127
    3020:	fc 01       	movw	r30, r24
    3022:	20 83       	st	Z, r18

00003024 <.LM6>:
    3024:	85 e4       	ldi	r24, 0x45	; 69
    3026:	90 e0       	ldi	r25, 0x00	; 0
    3028:	fc 01       	movw	r30, r24
    302a:	20 81       	ld	r18, Z

0000302c <.LM7>:
    302c:	85 e4       	ldi	r24, 0x45	; 69
    302e:	90 e0       	ldi	r25, 0x00	; 0

00003030 <.LM8>:
    3030:	2f 7c       	andi	r18, 0xCF	; 207
    3032:	fc 01       	movw	r30, r24
    3034:	20 83       	st	Z, r18

00003036 <.LM9>:
    3036:	25 e4       	ldi	r18, 0x45	; 69
    3038:	30 e0       	ldi	r19, 0x00	; 0
    303a:	85 e4       	ldi	r24, 0x45	; 69
    303c:	90 e0       	ldi	r25, 0x00	; 0
    303e:	f9 01       	movw	r30, r18
    3040:	20 81       	ld	r18, Z

00003042 <.LM10>:
    3042:	fc 01       	movw	r30, r24
    3044:	20 83       	st	Z, r18

00003046 <.LM11>:
    3046:	85 e0       	ldi	r24, 0x05	; 5
    3048:	0e 94 2a 18 	call	0x3054	; 0x3054 <MTIMER2_voidStartTimer>

0000304c <.LM12>:
    304c:	00 00       	nop
    304e:	df 91       	pop	r29
    3050:	cf 91       	pop	r28
    3052:	08 95       	ret

00003054 <MTIMER2_voidStartTimer>:
    3054:	cf 93       	push	r28
    3056:	df 93       	push	r29
    3058:	0f 92       	push	r0
    305a:	cd b7       	in	r28, 0x3d	; 61
    305c:	de b7       	in	r29, 0x3e	; 62
    305e:	89 83       	std	Y+1, r24	; 0x01

00003060 <.LM14>:
    3060:	89 81       	ldd	r24, Y+1	; 0x01
    3062:	87 30       	cpi	r24, 0x07	; 7
    3064:	09 f0       	breq	.+2      	; 0x3068 <.LM15>

00003066 <L0^A>:
    3066:	98 f4       	brcc	.+38     	; 0x308e <.L4>

00003068 <.LM15>:
    3068:	85 e4       	ldi	r24, 0x45	; 69
    306a:	90 e0       	ldi	r25, 0x00	; 0
    306c:	fc 01       	movw	r30, r24
    306e:	20 81       	ld	r18, Z

00003070 <.LM16>:
    3070:	85 e4       	ldi	r24, 0x45	; 69
    3072:	90 e0       	ldi	r25, 0x00	; 0

00003074 <.LM17>:
    3074:	28 7f       	andi	r18, 0xF8	; 248
    3076:	fc 01       	movw	r30, r24
    3078:	20 83       	st	Z, r18

0000307a <.LM18>:
    307a:	85 e4       	ldi	r24, 0x45	; 69
    307c:	90 e0       	ldi	r25, 0x00	; 0
    307e:	fc 01       	movw	r30, r24
    3080:	30 81       	ld	r19, Z
    3082:	85 e4       	ldi	r24, 0x45	; 69
    3084:	90 e0       	ldi	r25, 0x00	; 0

00003086 <.LM19>:
    3086:	29 81       	ldd	r18, Y+1	; 0x01
    3088:	23 2b       	or	r18, r19
    308a:	fc 01       	movw	r30, r24
    308c:	20 83       	st	Z, r18

0000308e <.L4>:
    308e:	00 00       	nop
    3090:	0f 90       	pop	r0
    3092:	df 91       	pop	r29
    3094:	cf 91       	pop	r28
    3096:	08 95       	ret

00003098 <MTIMER2_voidStopTimer>:
    3098:	cf 93       	push	r28
    309a:	df 93       	push	r29
    309c:	cd b7       	in	r28, 0x3d	; 61
    309e:	de b7       	in	r29, 0x3e	; 62

000030a0 <.LM22>:
    30a0:	85 e4       	ldi	r24, 0x45	; 69
    30a2:	90 e0       	ldi	r25, 0x00	; 0
    30a4:	fc 01       	movw	r30, r24
    30a6:	20 81       	ld	r18, Z

000030a8 <.LM23>:
    30a8:	85 e4       	ldi	r24, 0x45	; 69
    30aa:	90 e0       	ldi	r25, 0x00	; 0

000030ac <.LM24>:
    30ac:	28 7f       	andi	r18, 0xF8	; 248
    30ae:	fc 01       	movw	r30, r24
    30b0:	20 83       	st	Z, r18

000030b2 <.LM25>:
    30b2:	00 00       	nop
    30b4:	df 91       	pop	r29
    30b6:	cf 91       	pop	r28
    30b8:	08 95       	ret

000030ba <MTIMER2_voidEnableOVFInterrupt>:
    30ba:	cf 93       	push	r28
    30bc:	df 93       	push	r29
    30be:	cd b7       	in	r28, 0x3d	; 61
    30c0:	de b7       	in	r29, 0x3e	; 62

000030c2 <.LM27>:
    30c2:	89 e5       	ldi	r24, 0x59	; 89
    30c4:	90 e0       	ldi	r25, 0x00	; 0
    30c6:	fc 01       	movw	r30, r24
    30c8:	20 81       	ld	r18, Z
    30ca:	89 e5       	ldi	r24, 0x59	; 89
    30cc:	90 e0       	ldi	r25, 0x00	; 0
    30ce:	20 64       	ori	r18, 0x40	; 64
    30d0:	fc 01       	movw	r30, r24
    30d2:	20 83       	st	Z, r18

000030d4 <.LM28>:
    30d4:	00 00       	nop
    30d6:	df 91       	pop	r29
    30d8:	cf 91       	pop	r28
    30da:	08 95       	ret

000030dc <MTIMER2_voidDisableOVFInterrupt>:
    30dc:	cf 93       	push	r28
    30de:	df 93       	push	r29
    30e0:	cd b7       	in	r28, 0x3d	; 61
    30e2:	de b7       	in	r29, 0x3e	; 62

000030e4 <.LM30>:
    30e4:	89 e5       	ldi	r24, 0x59	; 89
    30e6:	90 e0       	ldi	r25, 0x00	; 0
    30e8:	fc 01       	movw	r30, r24
    30ea:	20 81       	ld	r18, Z
    30ec:	89 e5       	ldi	r24, 0x59	; 89
    30ee:	90 e0       	ldi	r25, 0x00	; 0
    30f0:	2f 7b       	andi	r18, 0xBF	; 191
    30f2:	fc 01       	movw	r30, r24
    30f4:	20 83       	st	Z, r18

000030f6 <.LM31>:
    30f6:	00 00       	nop
    30f8:	df 91       	pop	r29
    30fa:	cf 91       	pop	r28
    30fc:	08 95       	ret

000030fe <MTIMER2_voidEnableCompareMatchInterrupt>:
    30fe:	cf 93       	push	r28
    3100:	df 93       	push	r29
    3102:	cd b7       	in	r28, 0x3d	; 61
    3104:	de b7       	in	r29, 0x3e	; 62

00003106 <.LM33>:
    3106:	89 e5       	ldi	r24, 0x59	; 89
    3108:	90 e0       	ldi	r25, 0x00	; 0
    310a:	fc 01       	movw	r30, r24
    310c:	20 81       	ld	r18, Z
    310e:	89 e5       	ldi	r24, 0x59	; 89
    3110:	90 e0       	ldi	r25, 0x00	; 0
    3112:	20 68       	ori	r18, 0x80	; 128
    3114:	fc 01       	movw	r30, r24
    3116:	20 83       	st	Z, r18

00003118 <.LM34>:
    3118:	00 00       	nop
    311a:	df 91       	pop	r29
    311c:	cf 91       	pop	r28
    311e:	08 95       	ret

00003120 <MTIMER2_voidDisableCompareMatchInterrupt>:
    3120:	cf 93       	push	r28
    3122:	df 93       	push	r29
    3124:	cd b7       	in	r28, 0x3d	; 61
    3126:	de b7       	in	r29, 0x3e	; 62

00003128 <.LM36>:
    3128:	89 e5       	ldi	r24, 0x59	; 89
    312a:	90 e0       	ldi	r25, 0x00	; 0
    312c:	fc 01       	movw	r30, r24
    312e:	20 81       	ld	r18, Z
    3130:	89 e5       	ldi	r24, 0x59	; 89
    3132:	90 e0       	ldi	r25, 0x00	; 0
    3134:	2f 77       	andi	r18, 0x7F	; 127
    3136:	fc 01       	movw	r30, r24
    3138:	20 83       	st	Z, r18

0000313a <.LM37>:
    313a:	00 00       	nop
    313c:	df 91       	pop	r29
    313e:	cf 91       	pop	r28
    3140:	08 95       	ret

00003142 <MTIMER2_voidSetOVFCallBack>:
    3142:	cf 93       	push	r28
    3144:	df 93       	push	r29
    3146:	00 d0       	rcall	.+0      	; 0x3148 <L0^A>

00003148 <L0^A>:
    3148:	cd b7       	in	r28, 0x3d	; 61
    314a:	de b7       	in	r29, 0x3e	; 62
    314c:	9a 83       	std	Y+2, r25	; 0x02
    314e:	89 83       	std	Y+1, r24	; 0x01

00003150 <.LM39>:
    3150:	89 81       	ldd	r24, Y+1	; 0x01
    3152:	9a 81       	ldd	r25, Y+2	; 0x02
    3154:	90 93 03 01 	sts	0x0103, r25	; 0x800103 <TIMER2_OVRCallBack+0x1>
    3158:	80 93 02 01 	sts	0x0102, r24	; 0x800102 <TIMER2_OVRCallBack>

0000315c <.LM40>:
    315c:	00 00       	nop
    315e:	0f 90       	pop	r0
    3160:	0f 90       	pop	r0
    3162:	df 91       	pop	r29
    3164:	cf 91       	pop	r28
    3166:	08 95       	ret

00003168 <MTIMER2_voidSetCompareMatchCallBack>:
    3168:	cf 93       	push	r28
    316a:	df 93       	push	r29
    316c:	00 d0       	rcall	.+0      	; 0x316e <L0^A>

0000316e <L0^A>:
    316e:	cd b7       	in	r28, 0x3d	; 61
    3170:	de b7       	in	r29, 0x3e	; 62
    3172:	9a 83       	std	Y+2, r25	; 0x02
    3174:	89 83       	std	Y+1, r24	; 0x01

00003176 <.LM42>:
    3176:	89 81       	ldd	r24, Y+1	; 0x01
    3178:	9a 81       	ldd	r25, Y+2	; 0x02
    317a:	90 93 05 01 	sts	0x0105, r25	; 0x800105 <TIMER2_CompareMatchCallBack+0x1>
    317e:	80 93 04 01 	sts	0x0104, r24	; 0x800104 <TIMER2_CompareMatchCallBack>

00003182 <.LM43>:
    3182:	00 00       	nop
    3184:	0f 90       	pop	r0
    3186:	0f 90       	pop	r0
    3188:	df 91       	pop	r29
    318a:	cf 91       	pop	r28
    318c:	08 95       	ret

0000318e <MTIMER2_voidSetPreLoadValue>:
    318e:	cf 93       	push	r28
    3190:	df 93       	push	r29
    3192:	0f 92       	push	r0
    3194:	cd b7       	in	r28, 0x3d	; 61
    3196:	de b7       	in	r29, 0x3e	; 62
    3198:	89 83       	std	Y+1, r24	; 0x01

0000319a <.LM45>:
	...

0000319c <.L13>:
    319c:	82 e4       	ldi	r24, 0x42	; 66
    319e:	90 e0       	ldi	r25, 0x00	; 0
    31a0:	fc 01       	movw	r30, r24
    31a2:	80 81       	ld	r24, Z
    31a4:	86 95       	lsr	r24
    31a6:	86 95       	lsr	r24
    31a8:	88 2f       	mov	r24, r24
    31aa:	90 e0       	ldi	r25, 0x00	; 0
    31ac:	81 70       	andi	r24, 0x01	; 1
    31ae:	99 27       	eor	r25, r25

000031b0 <.LM47>:
    31b0:	81 30       	cpi	r24, 0x01	; 1
    31b2:	91 05       	cpc	r25, r1
    31b4:	99 f3       	breq	.-26     	; 0x319c <.L13>

000031b6 <.LM48>:
    31b6:	84 e4       	ldi	r24, 0x44	; 68
    31b8:	90 e0       	ldi	r25, 0x00	; 0

000031ba <.LM49>:
    31ba:	29 81       	ldd	r18, Y+1	; 0x01
    31bc:	fc 01       	movw	r30, r24
    31be:	20 83       	st	Z, r18

000031c0 <.LM50>:
    31c0:	00 00       	nop
    31c2:	0f 90       	pop	r0
    31c4:	df 91       	pop	r29
    31c6:	cf 91       	pop	r28
    31c8:	08 95       	ret

000031ca <MTIMER2_voidSetOCRValue>:
    31ca:	cf 93       	push	r28
    31cc:	df 93       	push	r29
    31ce:	0f 92       	push	r0
    31d0:	cd b7       	in	r28, 0x3d	; 61
    31d2:	de b7       	in	r29, 0x3e	; 62
    31d4:	89 83       	std	Y+1, r24	; 0x01

000031d6 <.LM52>:
	...

000031d8 <.L15>:
    31d8:	82 e4       	ldi	r24, 0x42	; 66
    31da:	90 e0       	ldi	r25, 0x00	; 0
    31dc:	fc 01       	movw	r30, r24
    31de:	80 81       	ld	r24, Z
    31e0:	86 95       	lsr	r24
    31e2:	88 2f       	mov	r24, r24
    31e4:	90 e0       	ldi	r25, 0x00	; 0
    31e6:	81 70       	andi	r24, 0x01	; 1
    31e8:	99 27       	eor	r25, r25

000031ea <.LM54>:
    31ea:	81 30       	cpi	r24, 0x01	; 1
    31ec:	91 05       	cpc	r25, r1
    31ee:	a1 f3       	breq	.-24     	; 0x31d8 <.L15>

000031f0 <.LM55>:
    31f0:	83 e4       	ldi	r24, 0x43	; 67
    31f2:	90 e0       	ldi	r25, 0x00	; 0

000031f4 <.LM56>:
    31f4:	29 81       	ldd	r18, Y+1	; 0x01
    31f6:	fc 01       	movw	r30, r24
    31f8:	20 83       	st	Z, r18

000031fa <.LM57>:
    31fa:	00 00       	nop
    31fc:	0f 90       	pop	r0
    31fe:	df 91       	pop	r29
    3200:	cf 91       	pop	r28
    3202:	08 95       	ret

00003204 <MTIMER2_uint8ReadTCNTValue>:
    3204:	cf 93       	push	r28
    3206:	df 93       	push	r29
    3208:	cd b7       	in	r28, 0x3d	; 61
    320a:	de b7       	in	r29, 0x3e	; 62

0000320c <.LM59>:
    320c:	84 e4       	ldi	r24, 0x44	; 68
    320e:	90 e0       	ldi	r25, 0x00	; 0
    3210:	fc 01       	movw	r30, r24
    3212:	80 81       	ld	r24, Z

00003214 <.LM60>:
    3214:	df 91       	pop	r29
    3216:	cf 91       	pop	r28
    3218:	08 95       	ret

0000321a <__vector_5>:
    321a:	1f 92       	push	r1
    321c:	0f 92       	push	r0
    321e:	0f b6       	in	r0, 0x3f	; 63
    3220:	0f 92       	push	r0
    3222:	11 24       	eor	r1, r1
    3224:	2f 93       	push	r18
    3226:	3f 93       	push	r19
    3228:	4f 93       	push	r20
    322a:	5f 93       	push	r21
    322c:	6f 93       	push	r22
    322e:	7f 93       	push	r23
    3230:	8f 93       	push	r24
    3232:	9f 93       	push	r25
    3234:	af 93       	push	r26
    3236:	bf 93       	push	r27
    3238:	ef 93       	push	r30
    323a:	ff 93       	push	r31
    323c:	cf 93       	push	r28
    323e:	df 93       	push	r29
    3240:	cd b7       	in	r28, 0x3d	; 61
    3242:	de b7       	in	r29, 0x3e	; 62

00003244 <.LM62>:
    3244:	80 91 02 01 	lds	r24, 0x0102	; 0x800102 <TIMER2_OVRCallBack>
    3248:	90 91 03 01 	lds	r25, 0x0103	; 0x800103 <TIMER2_OVRCallBack+0x1>

0000324c <.LM63>:
    324c:	00 97       	sbiw	r24, 0x00	; 0
    324e:	31 f0       	breq	.+12     	; 0x325c <.L20>

00003250 <.LM64>:
    3250:	80 91 02 01 	lds	r24, 0x0102	; 0x800102 <TIMER2_OVRCallBack>
    3254:	90 91 03 01 	lds	r25, 0x0103	; 0x800103 <TIMER2_OVRCallBack+0x1>
    3258:	fc 01       	movw	r30, r24
    325a:	09 95       	icall

0000325c <.L20>:
    325c:	00 00       	nop
    325e:	df 91       	pop	r29
    3260:	cf 91       	pop	r28
    3262:	ff 91       	pop	r31
    3264:	ef 91       	pop	r30
    3266:	bf 91       	pop	r27
    3268:	af 91       	pop	r26
    326a:	9f 91       	pop	r25
    326c:	8f 91       	pop	r24
    326e:	7f 91       	pop	r23
    3270:	6f 91       	pop	r22
    3272:	5f 91       	pop	r21
    3274:	4f 91       	pop	r20
    3276:	3f 91       	pop	r19
    3278:	2f 91       	pop	r18
    327a:	0f 90       	pop	r0
    327c:	0f be       	out	0x3f, r0	; 63
    327e:	0f 90       	pop	r0
    3280:	1f 90       	pop	r1
    3282:	18 95       	reti

00003284 <__vector_4>:
    3284:	1f 92       	push	r1
    3286:	0f 92       	push	r0
    3288:	0f b6       	in	r0, 0x3f	; 63
    328a:	0f 92       	push	r0
    328c:	11 24       	eor	r1, r1
    328e:	2f 93       	push	r18
    3290:	3f 93       	push	r19
    3292:	4f 93       	push	r20
    3294:	5f 93       	push	r21
    3296:	6f 93       	push	r22
    3298:	7f 93       	push	r23
    329a:	8f 93       	push	r24
    329c:	9f 93       	push	r25
    329e:	af 93       	push	r26
    32a0:	bf 93       	push	r27
    32a2:	ef 93       	push	r30
    32a4:	ff 93       	push	r31
    32a6:	cf 93       	push	r28
    32a8:	df 93       	push	r29
    32aa:	cd b7       	in	r28, 0x3d	; 61
    32ac:	de b7       	in	r29, 0x3e	; 62

000032ae <.LM67>:
    32ae:	80 91 04 01 	lds	r24, 0x0104	; 0x800104 <TIMER2_CompareMatchCallBack>
    32b2:	90 91 05 01 	lds	r25, 0x0105	; 0x800105 <TIMER2_CompareMatchCallBack+0x1>

000032b6 <.LM68>:
    32b6:	00 97       	sbiw	r24, 0x00	; 0
    32b8:	31 f0       	breq	.+12     	; 0x32c6 <.L23>

000032ba <.LM69>:
    32ba:	80 91 04 01 	lds	r24, 0x0104	; 0x800104 <TIMER2_CompareMatchCallBack>
    32be:	90 91 05 01 	lds	r25, 0x0105	; 0x800105 <TIMER2_CompareMatchCallBack+0x1>
    32c2:	fc 01       	movw	r30, r24
    32c4:	09 95       	icall

000032c6 <.L23>:
    32c6:	00 00       	nop
    32c8:	df 91       	pop	r29
    32ca:	cf 91       	pop	r28
    32cc:	ff 91       	pop	r31
    32ce:	ef 91       	pop	r30
    32d0:	bf 91       	pop	r27
    32d2:	af 91       	pop	r26
    32d4:	9f 91       	pop	r25
    32d6:	8f 91       	pop	r24
    32d8:	7f 91       	pop	r23
    32da:	6f 91       	pop	r22
    32dc:	5f 91       	pop	r21
    32de:	4f 91       	pop	r20
    32e0:	3f 91       	pop	r19
    32e2:	2f 91       	pop	r18
    32e4:	0f 90       	pop	r0
    32e6:	0f be       	out	0x3f, r0	; 63
    32e8:	0f 90       	pop	r0
    32ea:	1f 90       	pop	r1
    32ec:	18 95       	reti

000032ee <main>:
    32ee:	cf 93       	push	r28
    32f0:	df 93       	push	r29
    32f2:	cd b7       	in	r28, 0x3d	; 61
    32f4:	de b7       	in	r29, 0x3e	; 62

000032f6 <.LM1>:
    32f6:	0e 94 49 00 	call	0x92	; 0x92 <MDIO_voidInit>

000032fa <.LM2>:
    32fa:	0e 94 8f 03 	call	0x71e	; 0x71e <HLCD_voidInit>

000032fe <.LM3>:
    32fe:	0e 94 eb 02 	call	0x5d6	; 0x5d6 <HKPAD_voidInit>

00003302 <.LM4>:
    3302:	0e 94 c9 02 	call	0x592	; 0x592 <MGI_voidGIEnable>

00003306 <.LM5>:
    3306:	0e 94 a1 15 	call	0x2b42	; 0x2b42 <MTIMER0_voidInit>

0000330a <.LM6>:
    330a:	0e 94 03 16 	call	0x2c06	; 0x2c06 <MTIMER0_voidStopTimer>

0000330e <.LM7>:
    330e:	8b e9       	ldi	r24, 0x9B	; 155
    3310:	99 e1       	ldi	r25, 0x19	; 25
    3312:	0e 94 a1 18 	call	0x3142	; 0x3142 <MTIMER2_voidSetOVFCallBack>

00003316 <.LM8>:
    3316:	0e 94 e1 17 	call	0x2fc2	; 0x2fc2 <MTIMER2_voidInit>

0000331a <.LM9>:
    331a:	0e 94 6e 18 	call	0x30dc	; 0x30dc <MTIMER2_voidDisableOVFInterrupt>

0000331e <.LM10>:
    331e:	0e 94 4c 18 	call	0x3098	; 0x3098 <MTIMER2_voidStopTimer>

00003322 <.LM11>:
    3322:	0e 94 9c 1a 	call	0x3538	; 0x3538 <Program_SetClock>

00003326 <.LM12>:
    3326:	85 e0       	ldi	r24, 0x05	; 5
    3328:	0e 94 2a 18 	call	0x3054	; 0x3054 <MTIMER2_voidStartTimer>

0000332c <.LM13>:
    332c:	0e 94 5d 18 	call	0x30ba	; 0x30ba <MTIMER2_voidEnableOVFInterrupt>

00003330 <.L2>:
    3330:	0e 94 d3 19 	call	0x33a6	; 0x33a6 <Program_voidSSDisplayClock>
    3334:	fd cf       	rjmp	.-6      	; 0x3330 <.L2>

00003336 <Program_voidTimerOVF>:
    3336:	cf 93       	push	r28
    3338:	df 93       	push	r29
    333a:	cd b7       	in	r28, 0x3d	; 61
    333c:	de b7       	in	r29, 0x3e	; 62

0000333e <.LM16>:
    333e:	80 91 08 01 	lds	r24, 0x0108	; 0x800108 <global_uint8Second>

00003342 <.LM17>:
    3342:	8b 33       	cpi	r24, 0x3B	; 59
    3344:	09 f0       	breq	.+2      	; 0x3348 <.LM18>

00003346 <L0^A>:
    3346:	58 f5       	brcc	.+86     	; 0x339e <.L5>

00003348 <.LM18>:
    3348:	80 91 08 01 	lds	r24, 0x0108	; 0x800108 <global_uint8Second>
    334c:	8f 5f       	subi	r24, 0xFF	; 255
    334e:	80 93 08 01 	sts	0x0108, r24	; 0x800108 <global_uint8Second>

00003352 <.LM19>:
    3352:	80 91 08 01 	lds	r24, 0x0108	; 0x800108 <global_uint8Second>

00003356 <.LM20>:
    3356:	8c 33       	cpi	r24, 0x3C	; 60
    3358:	11 f5       	brne	.+68     	; 0x339e <.L5>

0000335a <.LM21>:
    335a:	10 92 08 01 	sts	0x0108, r1	; 0x800108 <global_uint8Second>

0000335e <.LM22>:
    335e:	80 91 07 01 	lds	r24, 0x0107	; 0x800107 <global_uint8Minute>

00003362 <.LM23>:
    3362:	8b 33       	cpi	r24, 0x3B	; 59
    3364:	09 f0       	breq	.+2      	; 0x3368 <.LM24>

00003366 <L0^A>:
    3366:	d8 f4       	brcc	.+54     	; 0x339e <.L5>

00003368 <.LM24>:
    3368:	80 91 07 01 	lds	r24, 0x0107	; 0x800107 <global_uint8Minute>
    336c:	8f 5f       	subi	r24, 0xFF	; 255
    336e:	80 93 07 01 	sts	0x0107, r24	; 0x800107 <global_uint8Minute>

00003372 <.LM25>:
    3372:	80 91 07 01 	lds	r24, 0x0107	; 0x800107 <global_uint8Minute>

00003376 <.LM26>:
    3376:	8c 33       	cpi	r24, 0x3C	; 60
    3378:	91 f4       	brne	.+36     	; 0x339e <.L5>

0000337a <.LM27>:
    337a:	10 92 07 01 	sts	0x0107, r1	; 0x800107 <global_uint8Minute>

0000337e <.LM28>:
    337e:	80 91 06 01 	lds	r24, 0x0106	; 0x800106 <global_uint8Hour>

00003382 <.LM29>:
    3382:	87 31       	cpi	r24, 0x17	; 23
    3384:	09 f0       	breq	.+2      	; 0x3388 <.LM30>

00003386 <L0^A>:
    3386:	58 f4       	brcc	.+22     	; 0x339e <.L5>

00003388 <.LM30>:
    3388:	80 91 06 01 	lds	r24, 0x0106	; 0x800106 <global_uint8Hour>
    338c:	8f 5f       	subi	r24, 0xFF	; 255
    338e:	80 93 06 01 	sts	0x0106, r24	; 0x800106 <global_uint8Hour>

00003392 <.LM31>:
    3392:	80 91 06 01 	lds	r24, 0x0106	; 0x800106 <global_uint8Hour>

00003396 <.LM32>:
    3396:	88 31       	cpi	r24, 0x18	; 24
    3398:	11 f4       	brne	.+4      	; 0x339e <.L5>

0000339a <.LM33>:
    339a:	10 92 06 01 	sts	0x0106, r1	; 0x800106 <global_uint8Hour>

0000339e <.L5>:
    339e:	00 00       	nop
    33a0:	df 91       	pop	r29
    33a2:	cf 91       	pop	r28
    33a4:	08 95       	ret

000033a6 <Program_voidSSDisplayClock>:
    33a6:	cf 93       	push	r28
    33a8:	df 93       	push	r29
    33aa:	cd b7       	in	r28, 0x3d	; 61
    33ac:	de b7       	in	r29, 0x3e	; 62

000033ae <.LM36>:
    33ae:	20 91 08 01 	lds	r18, 0x0108	; 0x800108 <global_uint8Second>
    33b2:	8d ec       	ldi	r24, 0xCD	; 205
    33b4:	28 9f       	mul	r18, r24
    33b6:	81 2d       	mov	r24, r1
    33b8:	11 24       	eor	r1, r1
    33ba:	98 2f       	mov	r25, r24
    33bc:	96 95       	lsr	r25
    33be:	96 95       	lsr	r25
    33c0:	96 95       	lsr	r25
    33c2:	89 2f       	mov	r24, r25
    33c4:	88 0f       	add	r24, r24
    33c6:	88 0f       	add	r24, r24
    33c8:	89 0f       	add	r24, r25
    33ca:	88 0f       	add	r24, r24
    33cc:	92 2f       	mov	r25, r18
    33ce:	98 1b       	sub	r25, r24
    33d0:	69 2f       	mov	r22, r25
    33d2:	80 e0       	ldi	r24, 0x00	; 0
    33d4:	0e 94 09 15 	call	0x2a12	; 0x2a12 <HSS_voidSendNumber>

000033d8 <.LM37>:
    33d8:	80 e0       	ldi	r24, 0x00	; 0
    33da:	0e 94 79 14 	call	0x28f2	; 0x28f2 <HSS_voidEnableSS>

000033de <.LM38>:
    33de:	64 e0       	ldi	r22, 0x04	; 4
    33e0:	70 e0       	ldi	r23, 0x00	; 0
    33e2:	80 e0       	ldi	r24, 0x00	; 0
    33e4:	90 e0       	ldi	r25, 0x00	; 0
    33e6:	0e 94 a9 16 	call	0x2d52	; 0x2d52 <MTIMER0_voidDelayinms>

000033ea <.LM39>:
    33ea:	80 e0       	ldi	r24, 0x00	; 0
    33ec:	0e 94 c1 14 	call	0x2982	; 0x2982 <HSS_voidDisableSS>

000033f0 <.LM40>:
    33f0:	90 91 08 01 	lds	r25, 0x0108	; 0x800108 <global_uint8Second>
    33f4:	8d ec       	ldi	r24, 0xCD	; 205
    33f6:	98 9f       	mul	r25, r24
    33f8:	81 2d       	mov	r24, r1
    33fa:	11 24       	eor	r1, r1
    33fc:	86 95       	lsr	r24
    33fe:	86 95       	lsr	r24
    3400:	86 95       	lsr	r24
    3402:	68 2f       	mov	r22, r24
    3404:	81 e0       	ldi	r24, 0x01	; 1
    3406:	0e 94 09 15 	call	0x2a12	; 0x2a12 <HSS_voidSendNumber>

0000340a <.LM41>:
    340a:	81 e0       	ldi	r24, 0x01	; 1
    340c:	0e 94 79 14 	call	0x28f2	; 0x28f2 <HSS_voidEnableSS>

00003410 <.LM42>:
    3410:	64 e0       	ldi	r22, 0x04	; 4
    3412:	70 e0       	ldi	r23, 0x00	; 0
    3414:	80 e0       	ldi	r24, 0x00	; 0
    3416:	90 e0       	ldi	r25, 0x00	; 0
    3418:	0e 94 a9 16 	call	0x2d52	; 0x2d52 <MTIMER0_voidDelayinms>

0000341c <.LM43>:
    341c:	81 e0       	ldi	r24, 0x01	; 1
    341e:	0e 94 c1 14 	call	0x2982	; 0x2982 <HSS_voidDisableSS>

00003422 <.LM44>:
    3422:	20 91 07 01 	lds	r18, 0x0107	; 0x800107 <global_uint8Minute>
    3426:	8d ec       	ldi	r24, 0xCD	; 205
    3428:	28 9f       	mul	r18, r24
    342a:	81 2d       	mov	r24, r1
    342c:	11 24       	eor	r1, r1
    342e:	98 2f       	mov	r25, r24
    3430:	96 95       	lsr	r25
    3432:	96 95       	lsr	r25
    3434:	96 95       	lsr	r25
    3436:	89 2f       	mov	r24, r25
    3438:	88 0f       	add	r24, r24
    343a:	88 0f       	add	r24, r24
    343c:	89 0f       	add	r24, r25
    343e:	88 0f       	add	r24, r24
    3440:	92 2f       	mov	r25, r18
    3442:	98 1b       	sub	r25, r24
    3444:	69 2f       	mov	r22, r25
    3446:	82 e0       	ldi	r24, 0x02	; 2
    3448:	0e 94 09 15 	call	0x2a12	; 0x2a12 <HSS_voidSendNumber>

0000344c <.LM45>:
    344c:	82 e0       	ldi	r24, 0x02	; 2
    344e:	0e 94 79 14 	call	0x28f2	; 0x28f2 <HSS_voidEnableSS>

00003452 <.LM46>:
    3452:	64 e0       	ldi	r22, 0x04	; 4
    3454:	70 e0       	ldi	r23, 0x00	; 0
    3456:	80 e0       	ldi	r24, 0x00	; 0
    3458:	90 e0       	ldi	r25, 0x00	; 0
    345a:	0e 94 a9 16 	call	0x2d52	; 0x2d52 <MTIMER0_voidDelayinms>

0000345e <.LM47>:
    345e:	82 e0       	ldi	r24, 0x02	; 2
    3460:	0e 94 c1 14 	call	0x2982	; 0x2982 <HSS_voidDisableSS>

00003464 <.LM48>:
    3464:	90 91 07 01 	lds	r25, 0x0107	; 0x800107 <global_uint8Minute>
    3468:	8d ec       	ldi	r24, 0xCD	; 205
    346a:	98 9f       	mul	r25, r24
    346c:	81 2d       	mov	r24, r1
    346e:	11 24       	eor	r1, r1
    3470:	86 95       	lsr	r24
    3472:	86 95       	lsr	r24
    3474:	86 95       	lsr	r24
    3476:	68 2f       	mov	r22, r24
    3478:	83 e0       	ldi	r24, 0x03	; 3
    347a:	0e 94 09 15 	call	0x2a12	; 0x2a12 <HSS_voidSendNumber>

0000347e <.LM49>:
    347e:	83 e0       	ldi	r24, 0x03	; 3
    3480:	0e 94 79 14 	call	0x28f2	; 0x28f2 <HSS_voidEnableSS>

00003484 <.LM50>:
    3484:	64 e0       	ldi	r22, 0x04	; 4
    3486:	70 e0       	ldi	r23, 0x00	; 0
    3488:	80 e0       	ldi	r24, 0x00	; 0
    348a:	90 e0       	ldi	r25, 0x00	; 0
    348c:	0e 94 a9 16 	call	0x2d52	; 0x2d52 <MTIMER0_voidDelayinms>

00003490 <.LM51>:
    3490:	83 e0       	ldi	r24, 0x03	; 3
    3492:	0e 94 c1 14 	call	0x2982	; 0x2982 <HSS_voidDisableSS>

00003496 <.LM52>:
    3496:	20 91 06 01 	lds	r18, 0x0106	; 0x800106 <global_uint8Hour>
    349a:	8d ec       	ldi	r24, 0xCD	; 205
    349c:	28 9f       	mul	r18, r24
    349e:	81 2d       	mov	r24, r1
    34a0:	11 24       	eor	r1, r1
    34a2:	98 2f       	mov	r25, r24
    34a4:	96 95       	lsr	r25
    34a6:	96 95       	lsr	r25
    34a8:	96 95       	lsr	r25
    34aa:	89 2f       	mov	r24, r25
    34ac:	88 0f       	add	r24, r24
    34ae:	88 0f       	add	r24, r24
    34b0:	89 0f       	add	r24, r25
    34b2:	88 0f       	add	r24, r24
    34b4:	92 2f       	mov	r25, r18
    34b6:	98 1b       	sub	r25, r24
    34b8:	69 2f       	mov	r22, r25
    34ba:	84 e0       	ldi	r24, 0x04	; 4
    34bc:	0e 94 09 15 	call	0x2a12	; 0x2a12 <HSS_voidSendNumber>

000034c0 <.LM53>:
    34c0:	84 e0       	ldi	r24, 0x04	; 4
    34c2:	0e 94 79 14 	call	0x28f2	; 0x28f2 <HSS_voidEnableSS>

000034c6 <.LM54>:
    34c6:	64 e0       	ldi	r22, 0x04	; 4
    34c8:	70 e0       	ldi	r23, 0x00	; 0
    34ca:	80 e0       	ldi	r24, 0x00	; 0
    34cc:	90 e0       	ldi	r25, 0x00	; 0
    34ce:	0e 94 a9 16 	call	0x2d52	; 0x2d52 <MTIMER0_voidDelayinms>

000034d2 <.LM55>:
    34d2:	84 e0       	ldi	r24, 0x04	; 4
    34d4:	0e 94 c1 14 	call	0x2982	; 0x2982 <HSS_voidDisableSS>

000034d8 <.LM56>:
    34d8:	90 91 06 01 	lds	r25, 0x0106	; 0x800106 <global_uint8Hour>
    34dc:	8d ec       	ldi	r24, 0xCD	; 205
    34de:	98 9f       	mul	r25, r24
    34e0:	81 2d       	mov	r24, r1
    34e2:	11 24       	eor	r1, r1
    34e4:	86 95       	lsr	r24
    34e6:	86 95       	lsr	r24
    34e8:	86 95       	lsr	r24
    34ea:	68 2f       	mov	r22, r24
    34ec:	85 e0       	ldi	r24, 0x05	; 5
    34ee:	0e 94 09 15 	call	0x2a12	; 0x2a12 <HSS_voidSendNumber>

000034f2 <.LM57>:
    34f2:	85 e0       	ldi	r24, 0x05	; 5
    34f4:	0e 94 79 14 	call	0x28f2	; 0x28f2 <HSS_voidEnableSS>

000034f8 <.LM58>:
    34f8:	64 e0       	ldi	r22, 0x04	; 4
    34fa:	70 e0       	ldi	r23, 0x00	; 0
    34fc:	80 e0       	ldi	r24, 0x00	; 0
    34fe:	90 e0       	ldi	r25, 0x00	; 0
    3500:	0e 94 a9 16 	call	0x2d52	; 0x2d52 <MTIMER0_voidDelayinms>

00003504 <.LM59>:
    3504:	85 e0       	ldi	r24, 0x05	; 5
    3506:	0e 94 c1 14 	call	0x2982	; 0x2982 <HSS_voidDisableSS>

0000350a <.LM60>:
    350a:	00 00       	nop
    350c:	df 91       	pop	r29
    350e:	cf 91       	pop	r28
    3510:	08 95       	ret

00003512 <Program_KPADGetKey>:
    3512:	cf 93       	push	r28
    3514:	df 93       	push	r29
    3516:	0f 92       	push	r0
    3518:	cd b7       	in	r28, 0x3d	; 61
    351a:	de b7       	in	r29, 0x3e	; 62

0000351c <.LM62>:
    351c:	8f ef       	ldi	r24, 0xFF	; 255
    351e:	89 83       	std	Y+1, r24	; 0x01

00003520 <.LM63>:
    3520:	03 c0       	rjmp	.+6      	; 0x3528 <.L8>

00003522 <.L9>:
    3522:	0e 94 1d 03 	call	0x63a	; 0x63a <KPAD_uint8GetPressedKey>
    3526:	89 83       	std	Y+1, r24	; 0x01

00003528 <.L8>:
    3528:	89 81       	ldd	r24, Y+1	; 0x01
    352a:	8f 3f       	cpi	r24, 0xFF	; 255
    352c:	d1 f3       	breq	.-12     	; 0x3522 <.L9>

0000352e <.LM66>:
    352e:	89 81       	ldd	r24, Y+1	; 0x01

00003530 <.LM67>:
    3530:	0f 90       	pop	r0
    3532:	df 91       	pop	r29
    3534:	cf 91       	pop	r28
    3536:	08 95       	ret

00003538 <Program_SetClock>:
    3538:	cf 93       	push	r28
    353a:	df 93       	push	r29
    353c:	00 d0       	rcall	.+0      	; 0x353e <L0^A>

0000353e <L0^A>:
    353e:	cd b7       	in	r28, 0x3d	; 61
    3540:	de b7       	in	r29, 0x3e	; 62

00003542 <.LM69>:
    3542:	10 92 06 01 	sts	0x0106, r1	; 0x800106 <global_uint8Hour>

00003546 <.LM70>:
    3546:	10 92 07 01 	sts	0x0107, r1	; 0x800107 <global_uint8Minute>

0000354a <.LM71>:
    354a:	10 92 08 01 	sts	0x0108, r1	; 0x800108 <global_uint8Second>

0000354e <.LM72>:
    354e:	19 82       	std	Y+1, r1	; 0x01

00003550 <.LM73>:
    3550:	1a 82       	std	Y+2, r1	; 0x02

00003552 <.L17>:
    3552:	10 92 06 01 	sts	0x0106, r1	; 0x800106 <global_uint8Hour>

00003556 <.LM75>:
    3556:	65 ec       	ldi	r22, 0xC5	; 197
    3558:	70 e0       	ldi	r23, 0x00	; 0
    355a:	80 e0       	ldi	r24, 0x00	; 0
    355c:	0e 94 3c 13 	call	0x2678	; 0x2678 <HLCD_voidSendString>

00003560 <.LM76>:
    3560:	19 82       	std	Y+1, r1	; 0x01

00003562 <.LM77>:
    3562:	23 c0       	rjmp	.+70     	; 0x35aa <.L12>

00003564 <.L15>:
    3564:	0e 94 89 1a 	call	0x3512	; 0x3512 <Program_KPADGetKey>
    3568:	8a 83       	std	Y+2, r24	; 0x02

0000356a <.LM79>:
    356a:	8a 81       	ldd	r24, Y+2	; 0x02
    356c:	89 33       	cpi	r24, 0x39	; 57
    356e:	09 f0       	breq	.+2      	; 0x3572 <.LM80>

00003570 <L0^A>:
    3570:	b0 f4       	brcc	.+44     	; 0x359e <.L13>

00003572 <.LM80>:
    3572:	8a 81       	ldd	r24, Y+2	; 0x02
    3574:	8f 32       	cpi	r24, 0x2F	; 47
    3576:	99 f0       	breq	.+38     	; 0x359e <.L13>
    3578:	90 f0       	brcs	.+36     	; 0x359e <.L13>

0000357a <.LM81>:
    357a:	90 91 06 01 	lds	r25, 0x0106	; 0x800106 <global_uint8Hour>
    357e:	89 2f       	mov	r24, r25
    3580:	88 0f       	add	r24, r24
    3582:	88 0f       	add	r24, r24
    3584:	89 0f       	add	r24, r25
    3586:	88 0f       	add	r24, r24
    3588:	98 2f       	mov	r25, r24
    358a:	8a 81       	ldd	r24, Y+2	; 0x02
    358c:	89 0f       	add	r24, r25
    358e:	80 53       	subi	r24, 0x30	; 48

00003590 <.LM82>:
    3590:	80 93 06 01 	sts	0x0106, r24	; 0x800106 <global_uint8Hour>

00003594 <.LM83>:
    3594:	6a 81       	ldd	r22, Y+2	; 0x02
    3596:	80 e0       	ldi	r24, 0x00	; 0
    3598:	0e 94 0a 0d 	call	0x1a14	; 0x1a14 <HLCD_voidSendData>
    359c:	03 c0       	rjmp	.+6      	; 0x35a4 <.L14>

0000359e <.L13>:
    359e:	89 81       	ldd	r24, Y+1	; 0x01
    35a0:	81 50       	subi	r24, 0x01	; 1
    35a2:	89 83       	std	Y+1, r24	; 0x01

000035a4 <.L14>:
    35a4:	89 81       	ldd	r24, Y+1	; 0x01
    35a6:	8f 5f       	subi	r24, 0xFF	; 255
    35a8:	89 83       	std	Y+1, r24	; 0x01

000035aa <.L12>:
    35aa:	89 81       	ldd	r24, Y+1	; 0x01
    35ac:	81 30       	cpi	r24, 0x01	; 1
    35ae:	d1 f2       	breq	.-76     	; 0x3564 <.L15>
    35b0:	c8 f2       	brcs	.-78     	; 0x3564 <.L15>

000035b2 <.LM87>:
    35b2:	80 91 06 01 	lds	r24, 0x0106	; 0x800106 <global_uint8Hour>

000035b6 <.LM88>:
    35b6:	88 31       	cpi	r24, 0x18	; 24
    35b8:	a1 f0       	breq	.+40     	; 0x35e2 <.L16>
    35ba:	98 f0       	brcs	.+38     	; 0x35e2 <.L16>

000035bc <.LM89>:
    35bc:	61 e0       	ldi	r22, 0x01	; 1
    35be:	80 e0       	ldi	r24, 0x00	; 0
    35c0:	0e 94 13 10 	call	0x2026	; 0x2026 <HLCD_voidSendCommand>

000035c4 <.LM90>:
    35c4:	6d ec       	ldi	r22, 0xCD	; 205
    35c6:	70 e0       	ldi	r23, 0x00	; 0
    35c8:	80 e0       	ldi	r24, 0x00	; 0
    35ca:	0e 94 3c 13 	call	0x2678	; 0x2678 <HLCD_voidSendString>

000035ce <.LM91>:
    35ce:	64 ef       	ldi	r22, 0xF4	; 244
    35d0:	71 e0       	ldi	r23, 0x01	; 1
    35d2:	80 e0       	ldi	r24, 0x00	; 0
    35d4:	90 e0       	ldi	r25, 0x00	; 0
    35d6:	0e 94 a9 16 	call	0x2d52	; 0x2d52 <MTIMER0_voidDelayinms>

000035da <.LM92>:
    35da:	61 e0       	ldi	r22, 0x01	; 1
    35dc:	80 e0       	ldi	r24, 0x00	; 0
    35de:	0e 94 13 10 	call	0x2026	; 0x2026 <HLCD_voidSendCommand>

000035e2 <.L16>:
    35e2:	80 91 06 01 	lds	r24, 0x0106	; 0x800106 <global_uint8Hour>
    35e6:	88 31       	cpi	r24, 0x18	; 24
    35e8:	11 f0       	breq	.+4      	; 0x35ee <.LM94>

000035ea <L0^A>:
    35ea:	08 f0       	brcs	.+2      	; 0x35ee <.LM94>

000035ec <L0^A>:
    35ec:	b2 cf       	rjmp	.-156    	; 0x3552 <.L17>

000035ee <.LM94>:
    35ee:	6c e2       	ldi	r22, 0x2C	; 44
    35f0:	71 e0       	ldi	r23, 0x01	; 1
    35f2:	80 e0       	ldi	r24, 0x00	; 0
    35f4:	90 e0       	ldi	r25, 0x00	; 0
    35f6:	0e 94 a9 16 	call	0x2d52	; 0x2d52 <MTIMER0_voidDelayinms>

000035fa <.LM95>:
    35fa:	61 e0       	ldi	r22, 0x01	; 1
    35fc:	80 e0       	ldi	r24, 0x00	; 0
    35fe:	0e 94 13 10 	call	0x2026	; 0x2026 <HLCD_voidSendCommand>

00003602 <.L23>:
    3602:	10 92 07 01 	sts	0x0107, r1	; 0x800107 <global_uint8Minute>

00003606 <.LM97>:
    3606:	6b ed       	ldi	r22, 0xDB	; 219
    3608:	70 e0       	ldi	r23, 0x00	; 0
    360a:	80 e0       	ldi	r24, 0x00	; 0
    360c:	0e 94 3c 13 	call	0x2678	; 0x2678 <HLCD_voidSendString>

00003610 <.LM98>:
    3610:	19 82       	std	Y+1, r1	; 0x01

00003612 <.LM99>:
    3612:	23 c0       	rjmp	.+70     	; 0x365a <.L18>

00003614 <.L21>:
    3614:	0e 94 89 1a 	call	0x3512	; 0x3512 <Program_KPADGetKey>
    3618:	8a 83       	std	Y+2, r24	; 0x02

0000361a <.LM101>:
    361a:	8a 81       	ldd	r24, Y+2	; 0x02
    361c:	89 33       	cpi	r24, 0x39	; 57
    361e:	09 f0       	breq	.+2      	; 0x3622 <.LM102>

00003620 <L0^A>:
    3620:	b0 f4       	brcc	.+44     	; 0x364e <.L19>

00003622 <.LM102>:
    3622:	8a 81       	ldd	r24, Y+2	; 0x02
    3624:	8f 32       	cpi	r24, 0x2F	; 47
    3626:	99 f0       	breq	.+38     	; 0x364e <.L19>
    3628:	90 f0       	brcs	.+36     	; 0x364e <.L19>

0000362a <.LM103>:
    362a:	90 91 07 01 	lds	r25, 0x0107	; 0x800107 <global_uint8Minute>
    362e:	89 2f       	mov	r24, r25
    3630:	88 0f       	add	r24, r24
    3632:	88 0f       	add	r24, r24
    3634:	89 0f       	add	r24, r25
    3636:	88 0f       	add	r24, r24
    3638:	98 2f       	mov	r25, r24
    363a:	8a 81       	ldd	r24, Y+2	; 0x02
    363c:	89 0f       	add	r24, r25
    363e:	80 53       	subi	r24, 0x30	; 48

00003640 <.LM104>:
    3640:	80 93 07 01 	sts	0x0107, r24	; 0x800107 <global_uint8Minute>

00003644 <.LM105>:
    3644:	6a 81       	ldd	r22, Y+2	; 0x02
    3646:	80 e0       	ldi	r24, 0x00	; 0
    3648:	0e 94 0a 0d 	call	0x1a14	; 0x1a14 <HLCD_voidSendData>
    364c:	03 c0       	rjmp	.+6      	; 0x3654 <.L20>

0000364e <.L19>:
    364e:	89 81       	ldd	r24, Y+1	; 0x01
    3650:	81 50       	subi	r24, 0x01	; 1
    3652:	89 83       	std	Y+1, r24	; 0x01

00003654 <.L20>:
    3654:	89 81       	ldd	r24, Y+1	; 0x01
    3656:	8f 5f       	subi	r24, 0xFF	; 255
    3658:	89 83       	std	Y+1, r24	; 0x01

0000365a <.L18>:
    365a:	89 81       	ldd	r24, Y+1	; 0x01
    365c:	81 30       	cpi	r24, 0x01	; 1
    365e:	d1 f2       	breq	.-76     	; 0x3614 <.L21>
    3660:	c8 f2       	brcs	.-78     	; 0x3614 <.L21>

00003662 <.LM109>:
    3662:	80 91 07 01 	lds	r24, 0x0107	; 0x800107 <global_uint8Minute>

00003666 <.LM110>:
    3666:	8c 33       	cpi	r24, 0x3C	; 60
    3668:	a1 f0       	breq	.+40     	; 0x3692 <.L22>
    366a:	98 f0       	brcs	.+38     	; 0x3692 <.L22>

0000366c <.LM111>:
    366c:	61 e0       	ldi	r22, 0x01	; 1
    366e:	80 e0       	ldi	r24, 0x00	; 0
    3670:	0e 94 13 10 	call	0x2026	; 0x2026 <HLCD_voidSendCommand>

00003674 <.LM112>:
    3674:	6d ec       	ldi	r22, 0xCD	; 205
    3676:	70 e0       	ldi	r23, 0x00	; 0
    3678:	80 e0       	ldi	r24, 0x00	; 0
    367a:	0e 94 3c 13 	call	0x2678	; 0x2678 <HLCD_voidSendString>

0000367e <.LM113>:
    367e:	64 ef       	ldi	r22, 0xF4	; 244
    3680:	71 e0       	ldi	r23, 0x01	; 1
    3682:	80 e0       	ldi	r24, 0x00	; 0
    3684:	90 e0       	ldi	r25, 0x00	; 0
    3686:	0e 94 a9 16 	call	0x2d52	; 0x2d52 <MTIMER0_voidDelayinms>

0000368a <.LM114>:
    368a:	61 e0       	ldi	r22, 0x01	; 1
    368c:	80 e0       	ldi	r24, 0x00	; 0
    368e:	0e 94 13 10 	call	0x2026	; 0x2026 <HLCD_voidSendCommand>

00003692 <.L22>:
    3692:	80 91 07 01 	lds	r24, 0x0107	; 0x800107 <global_uint8Minute>
    3696:	8c 33       	cpi	r24, 0x3C	; 60
    3698:	11 f0       	breq	.+4      	; 0x369e <.LM116>

0000369a <L0^A>:
    369a:	08 f0       	brcs	.+2      	; 0x369e <.LM116>

0000369c <L0^A>:
    369c:	b2 cf       	rjmp	.-156    	; 0x3602 <.L23>

0000369e <.LM116>:
    369e:	6c e2       	ldi	r22, 0x2C	; 44
    36a0:	71 e0       	ldi	r23, 0x01	; 1
    36a2:	80 e0       	ldi	r24, 0x00	; 0
    36a4:	90 e0       	ldi	r25, 0x00	; 0
    36a6:	0e 94 a9 16 	call	0x2d52	; 0x2d52 <MTIMER0_voidDelayinms>

000036aa <.LM117>:
    36aa:	61 e0       	ldi	r22, 0x01	; 1
    36ac:	80 e0       	ldi	r24, 0x00	; 0
    36ae:	0e 94 13 10 	call	0x2026	; 0x2026 <HLCD_voidSendCommand>

000036b2 <.L29>:
    36b2:	10 92 08 01 	sts	0x0108, r1	; 0x800108 <global_uint8Second>

000036b6 <.LM119>:
    36b6:	66 ee       	ldi	r22, 0xE6	; 230
    36b8:	70 e0       	ldi	r23, 0x00	; 0
    36ba:	80 e0       	ldi	r24, 0x00	; 0
    36bc:	0e 94 3c 13 	call	0x2678	; 0x2678 <HLCD_voidSendString>

000036c0 <.LM120>:
    36c0:	19 82       	std	Y+1, r1	; 0x01

000036c2 <.LM121>:
    36c2:	23 c0       	rjmp	.+70     	; 0x370a <.L24>

000036c4 <.L27>:
    36c4:	0e 94 89 1a 	call	0x3512	; 0x3512 <Program_KPADGetKey>
    36c8:	8a 83       	std	Y+2, r24	; 0x02

000036ca <.LM123>:
    36ca:	8a 81       	ldd	r24, Y+2	; 0x02
    36cc:	89 33       	cpi	r24, 0x39	; 57
    36ce:	09 f0       	breq	.+2      	; 0x36d2 <.LM124>

000036d0 <L0^A>:
    36d0:	b0 f4       	brcc	.+44     	; 0x36fe <.L25>

000036d2 <.LM124>:
    36d2:	8a 81       	ldd	r24, Y+2	; 0x02
    36d4:	8f 32       	cpi	r24, 0x2F	; 47
    36d6:	99 f0       	breq	.+38     	; 0x36fe <.L25>
    36d8:	90 f0       	brcs	.+36     	; 0x36fe <.L25>

000036da <.LM125>:
    36da:	90 91 08 01 	lds	r25, 0x0108	; 0x800108 <global_uint8Second>
    36de:	89 2f       	mov	r24, r25
    36e0:	88 0f       	add	r24, r24
    36e2:	88 0f       	add	r24, r24
    36e4:	89 0f       	add	r24, r25
    36e6:	88 0f       	add	r24, r24
    36e8:	98 2f       	mov	r25, r24
    36ea:	8a 81       	ldd	r24, Y+2	; 0x02
    36ec:	89 0f       	add	r24, r25
    36ee:	80 53       	subi	r24, 0x30	; 48

000036f0 <.LM126>:
    36f0:	80 93 08 01 	sts	0x0108, r24	; 0x800108 <global_uint8Second>

000036f4 <.LM127>:
    36f4:	6a 81       	ldd	r22, Y+2	; 0x02
    36f6:	80 e0       	ldi	r24, 0x00	; 0
    36f8:	0e 94 0a 0d 	call	0x1a14	; 0x1a14 <HLCD_voidSendData>
    36fc:	03 c0       	rjmp	.+6      	; 0x3704 <.L26>

000036fe <.L25>:
    36fe:	89 81       	ldd	r24, Y+1	; 0x01
    3700:	81 50       	subi	r24, 0x01	; 1
    3702:	89 83       	std	Y+1, r24	; 0x01

00003704 <.L26>:
    3704:	89 81       	ldd	r24, Y+1	; 0x01
    3706:	8f 5f       	subi	r24, 0xFF	; 255
    3708:	89 83       	std	Y+1, r24	; 0x01

0000370a <.L24>:
    370a:	89 81       	ldd	r24, Y+1	; 0x01
    370c:	81 30       	cpi	r24, 0x01	; 1
    370e:	d1 f2       	breq	.-76     	; 0x36c4 <.L27>
    3710:	c8 f2       	brcs	.-78     	; 0x36c4 <.L27>

00003712 <.LM131>:
    3712:	80 91 08 01 	lds	r24, 0x0108	; 0x800108 <global_uint8Second>

00003716 <.LM132>:
    3716:	8c 33       	cpi	r24, 0x3C	; 60
    3718:	a1 f0       	breq	.+40     	; 0x3742 <.L28>
    371a:	98 f0       	brcs	.+38     	; 0x3742 <.L28>

0000371c <.LM133>:
    371c:	61 e0       	ldi	r22, 0x01	; 1
    371e:	80 e0       	ldi	r24, 0x00	; 0
    3720:	0e 94 13 10 	call	0x2026	; 0x2026 <HLCD_voidSendCommand>

00003724 <.LM134>:
    3724:	6d ec       	ldi	r22, 0xCD	; 205
    3726:	70 e0       	ldi	r23, 0x00	; 0
    3728:	80 e0       	ldi	r24, 0x00	; 0
    372a:	0e 94 3c 13 	call	0x2678	; 0x2678 <HLCD_voidSendString>

0000372e <.LM135>:
    372e:	64 ef       	ldi	r22, 0xF4	; 244
    3730:	71 e0       	ldi	r23, 0x01	; 1
    3732:	80 e0       	ldi	r24, 0x00	; 0
    3734:	90 e0       	ldi	r25, 0x00	; 0
    3736:	0e 94 a9 16 	call	0x2d52	; 0x2d52 <MTIMER0_voidDelayinms>

0000373a <.LM136>:
    373a:	61 e0       	ldi	r22, 0x01	; 1
    373c:	80 e0       	ldi	r24, 0x00	; 0
    373e:	0e 94 13 10 	call	0x2026	; 0x2026 <HLCD_voidSendCommand>

00003742 <.L28>:
    3742:	80 91 08 01 	lds	r24, 0x0108	; 0x800108 <global_uint8Second>
    3746:	8c 33       	cpi	r24, 0x3C	; 60
    3748:	11 f0       	breq	.+4      	; 0x374e <.LM138>

0000374a <L0^A>:
    374a:	08 f0       	brcs	.+2      	; 0x374e <.LM138>

0000374c <L0^A>:
    374c:	b2 cf       	rjmp	.-156    	; 0x36b2 <.L29>

0000374e <.LM138>:
    374e:	6c e2       	ldi	r22, 0x2C	; 44
    3750:	71 e0       	ldi	r23, 0x01	; 1
    3752:	80 e0       	ldi	r24, 0x00	; 0
    3754:	90 e0       	ldi	r25, 0x00	; 0
    3756:	0e 94 a9 16 	call	0x2d52	; 0x2d52 <MTIMER0_voidDelayinms>

0000375a <.LM139>:
    375a:	61 e0       	ldi	r22, 0x01	; 1
    375c:	80 e0       	ldi	r24, 0x00	; 0
    375e:	0e 94 13 10 	call	0x2026	; 0x2026 <HLCD_voidSendCommand>

00003762 <.LM140>:
    3762:	61 ef       	ldi	r22, 0xF1	; 241
    3764:	70 e0       	ldi	r23, 0x00	; 0
    3766:	80 e0       	ldi	r24, 0x00	; 0
    3768:	0e 94 3c 13 	call	0x2678	; 0x2678 <HLCD_voidSendString>

0000376c <.LM141>:
    376c:	00 00       	nop
    376e:	0f 90       	pop	r0
    3770:	0f 90       	pop	r0
    3772:	df 91       	pop	r29
    3774:	cf 91       	pop	r28
    3776:	08 95       	ret

00003778 <__udivmodhi4>:
    3778:	aa 1b       	sub	r26, r26

0000377a <.Loc.1>:
    377a:	bb 1b       	sub	r27, r27

0000377c <.Loc.2>:
    377c:	51 e1       	ldi	r21, 0x11	; 17

0000377e <.Loc.3>:
    377e:	07 c0       	rjmp	.+14     	; 0x378e <__udivmodhi4_ep>

00003780 <__udivmodhi4_loop>:
    3780:	aa 1f       	adc	r26, r26

00003782 <.Loc.5>:
    3782:	bb 1f       	adc	r27, r27

00003784 <.Loc.6>:
    3784:	a6 17       	cp	r26, r22

00003786 <.Loc.7>:
    3786:	b7 07       	cpc	r27, r23

00003788 <.Loc.8>:
    3788:	10 f0       	brcs	.+4      	; 0x378e <__udivmodhi4_ep>

0000378a <.Loc.9>:
    378a:	a6 1b       	sub	r26, r22

0000378c <.Loc.10>:
    378c:	b7 0b       	sbc	r27, r23

0000378e <__udivmodhi4_ep>:
    378e:	88 1f       	adc	r24, r24

00003790 <.Loc.12>:
    3790:	99 1f       	adc	r25, r25

00003792 <.Loc.13>:
    3792:	5a 95       	dec	r21

00003794 <.Loc.14>:
    3794:	a9 f7       	brne	.-22     	; 0x3780 <__udivmodhi4_loop>

00003796 <.Loc.15>:
    3796:	80 95       	com	r24

00003798 <.Loc.16>:
    3798:	90 95       	com	r25

0000379a <.Loc.17>:
    379a:	bc 01       	movw	r22, r24

0000379c <.Loc.18>:
    379c:	cd 01       	movw	r24, r26

0000379e <.Loc.19>:
    379e:	08 95       	ret

000037a0 <__udivmodsi4>:
    37a0:	a1 e2       	ldi	r26, 0x21	; 33

000037a2 <.Loc.1>:
    37a2:	1a 2e       	mov	r1, r26

000037a4 <.Loc.2>:
    37a4:	aa 1b       	sub	r26, r26

000037a6 <.Loc.3>:
    37a6:	bb 1b       	sub	r27, r27

000037a8 <.Loc.4>:
    37a8:	fd 01       	movw	r30, r26

000037aa <.Loc.5>:
    37aa:	0d c0       	rjmp	.+26     	; 0x37c6 <__udivmodsi4_ep>

000037ac <__udivmodsi4_loop>:
    37ac:	aa 1f       	adc	r26, r26

000037ae <.Loc.7>:
    37ae:	bb 1f       	adc	r27, r27

000037b0 <.Loc.8>:
    37b0:	ee 1f       	adc	r30, r30

000037b2 <.Loc.9>:
    37b2:	ff 1f       	adc	r31, r31

000037b4 <.Loc.10>:
    37b4:	a2 17       	cp	r26, r18

000037b6 <.Loc.11>:
    37b6:	b3 07       	cpc	r27, r19

000037b8 <.Loc.12>:
    37b8:	e4 07       	cpc	r30, r20

000037ba <.Loc.13>:
    37ba:	f5 07       	cpc	r31, r21

000037bc <.Loc.14>:
    37bc:	20 f0       	brcs	.+8      	; 0x37c6 <__udivmodsi4_ep>

000037be <.Loc.15>:
    37be:	a2 1b       	sub	r26, r18

000037c0 <.Loc.16>:
    37c0:	b3 0b       	sbc	r27, r19

000037c2 <.Loc.17>:
    37c2:	e4 0b       	sbc	r30, r20

000037c4 <.Loc.18>:
    37c4:	f5 0b       	sbc	r31, r21

000037c6 <__udivmodsi4_ep>:
    37c6:	66 1f       	adc	r22, r22

000037c8 <.Loc.20>:
    37c8:	77 1f       	adc	r23, r23

000037ca <.Loc.21>:
    37ca:	88 1f       	adc	r24, r24

000037cc <.Loc.22>:
    37cc:	99 1f       	adc	r25, r25

000037ce <.Loc.23>:
    37ce:	1a 94       	dec	r1

000037d0 <.Loc.24>:
    37d0:	69 f7       	brne	.-38     	; 0x37ac <__udivmodsi4_loop>

000037d2 <.Loc.25>:
    37d2:	60 95       	com	r22

000037d4 <.Loc.26>:
    37d4:	70 95       	com	r23

000037d6 <.Loc.27>:
    37d6:	80 95       	com	r24

000037d8 <.Loc.28>:
    37d8:	90 95       	com	r25

000037da <.Loc.29>:
    37da:	9b 01       	movw	r18, r22

000037dc <.Loc.30>:
    37dc:	ac 01       	movw	r20, r24

000037de <.Loc.31>:
    37de:	bd 01       	movw	r22, r26

000037e0 <.Loc.32>:
    37e0:	cf 01       	movw	r24, r30

000037e2 <.Loc.33>:
    37e2:	08 95       	ret

000037e4 <__divmodsi4>:
    37e4:	05 2e       	mov	r0, r21

000037e6 <.Loc.1>:
    37e6:	97 fb       	bst	r25, 7

000037e8 <.Loc.2>:
    37e8:	1e f4       	brtc	.+6      	; 0x37f0 <.L^B1>

000037ea <.Loc.3>:
    37ea:	00 94       	com	r0

000037ec <.Loc.4>:
    37ec:	0e 94 09 1c 	call	0x3812	; 0x3812 <__negsi2>

000037f0 <.L^B1>:
    37f0:	57 fd       	sbrc	r21, 7

000037f2 <.Loc.6>:
    37f2:	07 d0       	rcall	.+14     	; 0x3802 <__divmodsi4_neg2>

000037f4 <.Loc.7>:
    37f4:	0e 94 d0 1b 	call	0x37a0	; 0x37a0 <__udivmodsi4>

000037f8 <.Loc.8>:
    37f8:	07 fc       	sbrc	r0, 7

000037fa <.Loc.9>:
    37fa:	03 d0       	rcall	.+6      	; 0x3802 <__divmodsi4_neg2>

000037fc <.Loc.10>:
    37fc:	4e f4       	brtc	.+18     	; 0x3810 <__divmodsi4_exit>

000037fe <.Loc.11>:
    37fe:	0c 94 09 1c 	jmp	0x3812	; 0x3812 <__negsi2>

00003802 <__divmodsi4_neg2>:
    3802:	50 95       	com	r21

00003804 <.Loc.13>:
    3804:	40 95       	com	r20

00003806 <.Loc.14>:
    3806:	30 95       	com	r19

00003808 <.Loc.15>:
    3808:	21 95       	neg	r18

0000380a <.Loc.16>:
    380a:	3f 4f       	sbci	r19, 0xFF	; 255

0000380c <.Loc.17>:
    380c:	4f 4f       	sbci	r20, 0xFF	; 255

0000380e <.Loc.18>:
    380e:	5f 4f       	sbci	r21, 0xFF	; 255

00003810 <__divmodsi4_exit>:
    3810:	08 95       	ret

00003812 <__negsi2>:
    3812:	90 95       	com	r25
    3814:	80 95       	com	r24
    3816:	70 95       	com	r23
    3818:	61 95       	neg	r22
    381a:	7f 4f       	sbci	r23, 0xFF	; 255
    381c:	8f 4f       	sbci	r24, 0xFF	; 255
    381e:	9f 4f       	sbci	r25, 0xFF	; 255

00003820 <.Loc.1>:
    3820:	08 95       	ret

00003822 <__cmpsf2>:
    3822:	0e 94 f4 1c 	call	0x39e8	; 0x39e8 <__fp_cmp>
    3826:	08 f4       	brcc	.+2      	; 0x382a <.L1^B1>
    3828:	81 e0       	ldi	r24, 0x01	; 1

0000382a <.L1^B1>:
    382a:	08 95       	ret

0000382c <__divsf3>:
    382c:	0e 94 2a 1c 	call	0x3854	; 0x3854 <__divsf3x>
    3830:	0c 94 2f 1d 	jmp	0x3a5e	; 0x3a5e <__fp_round>

00003834 <.L^B1>:
    3834:	0e 94 28 1d 	call	0x3a50	; 0x3a50 <__fp_pscB>
    3838:	58 f0       	brcs	.+22     	; 0x3850 <.L_nan>
    383a:	0e 94 21 1d 	call	0x3a42	; 0x3a42 <__fp_pscA>
    383e:	40 f0       	brcs	.+16     	; 0x3850 <.L_nan>
    3840:	29 f4       	brne	.+10     	; 0x384c <.L_zr>
    3842:	5f 3f       	cpi	r21, 0xFF	; 255
    3844:	29 f0       	breq	.+10     	; 0x3850 <.L_nan>

00003846 <.L_inf>:
    3846:	0c 94 18 1d 	jmp	0x3a30	; 0x3a30 <__fp_inf>

0000384a <.L1^B1>:
    384a:	51 11       	cpse	r21, r1

0000384c <.L_zr>:
    384c:	0c 94 63 1d 	jmp	0x3ac6	; 0x3ac6 <__fp_szero>

00003850 <.L_nan>:
    3850:	0c 94 1e 1d 	jmp	0x3a3c	; 0x3a3c <__fp_nan>

00003854 <__divsf3x>:
    3854:	0e 94 40 1d 	call	0x3a80	; 0x3a80 <__fp_split3>
    3858:	68 f3       	brcs	.-38     	; 0x3834 <.L^B1>

0000385a <__divsf3_pse>:
    385a:	99 23       	and	r25, r25
    385c:	b1 f3       	breq	.-20     	; 0x384a <.L1^B1>
    385e:	55 23       	and	r21, r21
    3860:	91 f3       	breq	.-28     	; 0x3846 <.L_inf>
    3862:	95 1b       	sub	r25, r21
    3864:	55 0b       	sbc	r21, r21
    3866:	bb 27       	eor	r27, r27
    3868:	aa 27       	eor	r26, r26

0000386a <.L2^B1>:
    386a:	62 17       	cp	r22, r18
    386c:	73 07       	cpc	r23, r19
    386e:	84 07       	cpc	r24, r20
    3870:	38 f0       	brcs	.+14     	; 0x3880 <.L3^B1>
    3872:	9f 5f       	subi	r25, 0xFF	; 255
    3874:	5f 4f       	sbci	r21, 0xFF	; 255
    3876:	22 0f       	add	r18, r18
    3878:	33 1f       	adc	r19, r19
    387a:	44 1f       	adc	r20, r20
    387c:	aa 1f       	adc	r26, r26
    387e:	a9 f3       	breq	.-22     	; 0x386a <.L2^B1>

00003880 <.L3^B1>:
    3880:	35 d0       	rcall	.+106    	; 0x38ec <.L_div>
    3882:	0e 2e       	mov	r0, r30
    3884:	3a f0       	brmi	.+14     	; 0x3894 <.L5^B1>

00003886 <.L4^B1>:
    3886:	e0 e8       	ldi	r30, 0x80	; 128
    3888:	32 d0       	rcall	.+100    	; 0x38ee <.L_div1>
    388a:	91 50       	subi	r25, 0x01	; 1
    388c:	50 40       	sbci	r21, 0x00	; 0
    388e:	e6 95       	lsr	r30
    3890:	00 1c       	adc	r0, r0
    3892:	ca f7       	brpl	.-14     	; 0x3886 <.L4^B1>

00003894 <.L5^B1>:
    3894:	2b d0       	rcall	.+86     	; 0x38ec <.L_div>
    3896:	fe 2f       	mov	r31, r30
    3898:	29 d0       	rcall	.+82     	; 0x38ec <.L_div>
    389a:	66 0f       	add	r22, r22
    389c:	77 1f       	adc	r23, r23
    389e:	88 1f       	adc	r24, r24
    38a0:	bb 1f       	adc	r27, r27
    38a2:	26 17       	cp	r18, r22
    38a4:	37 07       	cpc	r19, r23
    38a6:	48 07       	cpc	r20, r24
    38a8:	ab 07       	cpc	r26, r27
    38aa:	b0 e8       	ldi	r27, 0x80	; 128
    38ac:	09 f0       	breq	.+2      	; 0x38b0 <.L4^B2>
    38ae:	bb 0b       	sbc	r27, r27

000038b0 <.L4^B2>:
    38b0:	80 2d       	mov	r24, r0
    38b2:	bf 01       	movw	r22, r30
    38b4:	ff 27       	eor	r31, r31
    38b6:	93 58       	subi	r25, 0x83	; 131
    38b8:	5f 4f       	sbci	r21, 0xFF	; 255
    38ba:	3a f0       	brmi	.+14     	; 0x38ca <.L13^B1>
    38bc:	9e 3f       	cpi	r25, 0xFE	; 254
    38be:	51 05       	cpc	r21, r1
    38c0:	78 f0       	brcs	.+30     	; 0x38e0 <.L15^B1>
    38c2:	0c 94 18 1d 	jmp	0x3a30	; 0x3a30 <__fp_inf>

000038c6 <.L12^B1>:
    38c6:	0c 94 63 1d 	jmp	0x3ac6	; 0x3ac6 <__fp_szero>

000038ca <.L13^B1>:
    38ca:	5f 3f       	cpi	r21, 0xFF	; 255
    38cc:	e4 f3       	brlt	.-8      	; 0x38c6 <.L12^B1>
    38ce:	98 3e       	cpi	r25, 0xE8	; 232
    38d0:	d4 f3       	brlt	.-12     	; 0x38c6 <.L12^B1>

000038d2 <.L14^B1>:
    38d2:	86 95       	lsr	r24
    38d4:	77 95       	ror	r23
    38d6:	67 95       	ror	r22
    38d8:	b7 95       	ror	r27
    38da:	f7 95       	ror	r31
    38dc:	9f 5f       	subi	r25, 0xFF	; 255
    38de:	c9 f7       	brne	.-14     	; 0x38d2 <.L14^B1>

000038e0 <.L15^B1>:
    38e0:	88 0f       	add	r24, r24
    38e2:	91 1d       	adc	r25, r1
    38e4:	96 95       	lsr	r25
    38e6:	87 95       	ror	r24
    38e8:	97 f9       	bld	r25, 7
    38ea:	08 95       	ret

000038ec <.L_div>:
    38ec:	e1 e0       	ldi	r30, 0x01	; 1

000038ee <.L_div1>:
    38ee:	66 0f       	add	r22, r22
    38f0:	77 1f       	adc	r23, r23
    38f2:	88 1f       	adc	r24, r24
    38f4:	bb 1f       	adc	r27, r27
    38f6:	62 17       	cp	r22, r18
    38f8:	73 07       	cpc	r23, r19
    38fa:	84 07       	cpc	r24, r20
    38fc:	ba 07       	cpc	r27, r26
    38fe:	20 f0       	brcs	.+8      	; 0x3908 <.L2^B2>
    3900:	62 1b       	sub	r22, r18
    3902:	73 0b       	sbc	r23, r19
    3904:	84 0b       	sbc	r24, r20
    3906:	ba 0b       	sbc	r27, r26

00003908 <.L2^B2>:
    3908:	ee 1f       	adc	r30, r30
    390a:	88 f7       	brcc	.-30     	; 0x38ee <.L_div1>
    390c:	e0 95       	com	r30
    390e:	08 95       	ret

00003910 <__fixunssfsi>:
    3910:	0e 94 48 1d 	call	0x3a90	; 0x3a90 <__fp_splitA>
    3914:	88 f0       	brcs	.+34     	; 0x3938 <.L_err>
    3916:	9f 57       	subi	r25, 0x7F	; 127
    3918:	98 f0       	brcs	.+38     	; 0x3940 <.L_zr>
    391a:	b9 2f       	mov	r27, r25
    391c:	99 27       	eor	r25, r25
    391e:	b7 51       	subi	r27, 0x17	; 23
    3920:	b0 f0       	brcs	.+44     	; 0x394e <.L4^B1>
    3922:	e1 f0       	breq	.+56     	; 0x395c <.L_sign>

00003924 <.L1^B1>:
    3924:	66 0f       	add	r22, r22
    3926:	77 1f       	adc	r23, r23
    3928:	88 1f       	adc	r24, r24
    392a:	99 1f       	adc	r25, r25
    392c:	1a f0       	brmi	.+6      	; 0x3934 <.L2^B1>
    392e:	ba 95       	dec	r27
    3930:	c9 f7       	brne	.-14     	; 0x3924 <.L1^B1>
    3932:	14 c0       	rjmp	.+40     	; 0x395c <.L_sign>

00003934 <.L2^B1>:
    3934:	b1 30       	cpi	r27, 0x01	; 1
    3936:	91 f0       	breq	.+36     	; 0x395c <.L_sign>

00003938 <.L_err>:
    3938:	0e 94 62 1d 	call	0x3ac4	; 0x3ac4 <__fp_zero>
    393c:	b1 e0       	ldi	r27, 0x01	; 1
    393e:	08 95       	ret

00003940 <.L_zr>:
    3940:	0c 94 62 1d 	jmp	0x3ac4	; 0x3ac4 <__fp_zero>

00003944 <.L3^B1>:
    3944:	67 2f       	mov	r22, r23
    3946:	78 2f       	mov	r23, r24
    3948:	88 27       	eor	r24, r24
    394a:	b8 5f       	subi	r27, 0xF8	; 248
    394c:	39 f0       	breq	.+14     	; 0x395c <.L_sign>

0000394e <.L4^B1>:
    394e:	b9 3f       	cpi	r27, 0xF9	; 249
    3950:	cc f3       	brlt	.-14     	; 0x3944 <.L3^B1>

00003952 <.L5^B1>:
    3952:	86 95       	lsr	r24
    3954:	77 95       	ror	r23
    3956:	67 95       	ror	r22
    3958:	b3 95       	inc	r27
    395a:	d9 f7       	brne	.-10     	; 0x3952 <.L5^B1>

0000395c <.L_sign>:
    395c:	3e f4       	brtc	.+14     	; 0x396c <.L6^B1>
    395e:	90 95       	com	r25
    3960:	80 95       	com	r24
    3962:	70 95       	com	r23
    3964:	61 95       	neg	r22
    3966:	7f 4f       	sbci	r23, 0xFF	; 255
    3968:	8f 4f       	sbci	r24, 0xFF	; 255
    396a:	9f 4f       	sbci	r25, 0xFF	; 255

0000396c <.L6^B1>:
    396c:	08 95       	ret

0000396e <__floatunsisf>:
    396e:	e8 94       	clt
    3970:	09 c0       	rjmp	.+18     	; 0x3984 <.L1^B1>

00003972 <__floatsisf>:
    3972:	97 fb       	bst	r25, 7
    3974:	3e f4       	brtc	.+14     	; 0x3984 <.L1^B1>
    3976:	90 95       	com	r25
    3978:	80 95       	com	r24
    397a:	70 95       	com	r23
    397c:	61 95       	neg	r22
    397e:	7f 4f       	sbci	r23, 0xFF	; 255
    3980:	8f 4f       	sbci	r24, 0xFF	; 255
    3982:	9f 4f       	sbci	r25, 0xFF	; 255

00003984 <.L1^B1>:
    3984:	99 23       	and	r25, r25
    3986:	a9 f0       	breq	.+42     	; 0x39b2 <.L4^B1>
    3988:	f9 2f       	mov	r31, r25
    398a:	96 e9       	ldi	r25, 0x96	; 150
    398c:	bb 27       	eor	r27, r27

0000398e <.L2^B1>:
    398e:	93 95       	inc	r25
    3990:	f6 95       	lsr	r31
    3992:	87 95       	ror	r24
    3994:	77 95       	ror	r23
    3996:	67 95       	ror	r22
    3998:	b7 95       	ror	r27
    399a:	f1 11       	cpse	r31, r1
    399c:	f8 cf       	rjmp	.-16     	; 0x398e <.L2^B1>
    399e:	fa f4       	brpl	.+62     	; 0x39de <.L_pack>
    39a0:	bb 0f       	add	r27, r27
    39a2:	11 f4       	brne	.+4      	; 0x39a8 <.L3^B1>
    39a4:	60 ff       	sbrs	r22, 0
    39a6:	1b c0       	rjmp	.+54     	; 0x39de <.L_pack>

000039a8 <.L3^B1>:
    39a8:	6f 5f       	subi	r22, 0xFF	; 255
    39aa:	7f 4f       	sbci	r23, 0xFF	; 255
    39ac:	8f 4f       	sbci	r24, 0xFF	; 255
    39ae:	9f 4f       	sbci	r25, 0xFF	; 255
    39b0:	16 c0       	rjmp	.+44     	; 0x39de <.L_pack>

000039b2 <.L4^B1>:
    39b2:	88 23       	and	r24, r24
    39b4:	11 f0       	breq	.+4      	; 0x39ba <.L5^B1>
    39b6:	96 e9       	ldi	r25, 0x96	; 150
    39b8:	11 c0       	rjmp	.+34     	; 0x39dc <.L8^B1>

000039ba <.L5^B1>:
    39ba:	77 23       	and	r23, r23
    39bc:	21 f0       	breq	.+8      	; 0x39c6 <.L6^B1>
    39be:	9e e8       	ldi	r25, 0x8E	; 142
    39c0:	87 2f       	mov	r24, r23
    39c2:	76 2f       	mov	r23, r22
    39c4:	05 c0       	rjmp	.+10     	; 0x39d0 <.L7^B1>

000039c6 <.L6^B1>:
    39c6:	66 23       	and	r22, r22
    39c8:	71 f0       	breq	.+28     	; 0x39e6 <.L9^B1>
    39ca:	96 e8       	ldi	r25, 0x86	; 134
    39cc:	86 2f       	mov	r24, r22
    39ce:	70 e0       	ldi	r23, 0x00	; 0

000039d0 <.L7^B1>:
    39d0:	60 e0       	ldi	r22, 0x00	; 0
    39d2:	2a f0       	brmi	.+10     	; 0x39de <.L_pack>

000039d4 <.L10^B1>:
    39d4:	9a 95       	dec	r25
    39d6:	66 0f       	add	r22, r22
    39d8:	77 1f       	adc	r23, r23
    39da:	88 1f       	adc	r24, r24

000039dc <.L8^B1>:
    39dc:	da f7       	brpl	.-10     	; 0x39d4 <.L10^B1>

000039de <.L_pack>:
    39de:	88 0f       	add	r24, r24
    39e0:	96 95       	lsr	r25
    39e2:	87 95       	ror	r24
    39e4:	97 f9       	bld	r25, 7

000039e6 <.L9^B1>:
    39e6:	08 95       	ret

000039e8 <__fp_cmp>:
    39e8:	99 0f       	add	r25, r25
    39ea:	00 08       	sbc	r0, r0
    39ec:	55 0f       	add	r21, r21
    39ee:	aa 0b       	sbc	r26, r26
    39f0:	e0 e8       	ldi	r30, 0x80	; 128
    39f2:	fe ef       	ldi	r31, 0xFE	; 254
    39f4:	16 16       	cp	r1, r22
    39f6:	17 06       	cpc	r1, r23
    39f8:	e8 07       	cpc	r30, r24
    39fa:	f9 07       	cpc	r31, r25
    39fc:	c0 f0       	brcs	.+48     	; 0x3a2e <.L9^B1>
    39fe:	12 16       	cp	r1, r18
    3a00:	13 06       	cpc	r1, r19
    3a02:	e4 07       	cpc	r30, r20
    3a04:	f5 07       	cpc	r31, r21
    3a06:	98 f0       	brcs	.+38     	; 0x3a2e <.L9^B1>
    3a08:	62 1b       	sub	r22, r18
    3a0a:	73 0b       	sbc	r23, r19
    3a0c:	84 0b       	sbc	r24, r20
    3a0e:	95 0b       	sbc	r25, r21
    3a10:	39 f4       	brne	.+14     	; 0x3a20 <.L1^B1>
    3a12:	0a 26       	eor	r0, r26
    3a14:	61 f0       	breq	.+24     	; 0x3a2e <.L9^B1>
    3a16:	23 2b       	or	r18, r19
    3a18:	24 2b       	or	r18, r20
    3a1a:	25 2b       	or	r18, r21
    3a1c:	21 f4       	brne	.+8      	; 0x3a26 <.L2^B1>
    3a1e:	08 95       	ret

00003a20 <.L1^B1>:
    3a20:	0a 26       	eor	r0, r26
    3a22:	09 f4       	brne	.+2      	; 0x3a26 <.L2^B1>
    3a24:	a1 40       	sbci	r26, 0x01	; 1

00003a26 <.L2^B1>:
    3a26:	a6 95       	lsr	r26
    3a28:	8f ef       	ldi	r24, 0xFF	; 255
    3a2a:	81 1d       	adc	r24, r1
    3a2c:	81 1d       	adc	r24, r1

00003a2e <.L9^B1>:
    3a2e:	08 95       	ret

00003a30 <__fp_inf>:
    3a30:	97 f9       	bld	r25, 7
    3a32:	9f 67       	ori	r25, 0x7F	; 127
    3a34:	80 e8       	ldi	r24, 0x80	; 128
    3a36:	70 e0       	ldi	r23, 0x00	; 0
    3a38:	60 e0       	ldi	r22, 0x00	; 0
    3a3a:	08 95       	ret

00003a3c <__fp_nan>:
    3a3c:	9f ef       	ldi	r25, 0xFF	; 255
    3a3e:	80 ec       	ldi	r24, 0xC0	; 192
    3a40:	08 95       	ret

00003a42 <__fp_pscA>:
    3a42:	00 24       	eor	r0, r0
    3a44:	0a 94       	dec	r0
    3a46:	16 16       	cp	r1, r22
    3a48:	17 06       	cpc	r1, r23
    3a4a:	18 06       	cpc	r1, r24
    3a4c:	09 06       	cpc	r0, r25
    3a4e:	08 95       	ret

00003a50 <__fp_pscB>:
    3a50:	00 24       	eor	r0, r0
    3a52:	0a 94       	dec	r0
    3a54:	12 16       	cp	r1, r18
    3a56:	13 06       	cpc	r1, r19
    3a58:	14 06       	cpc	r1, r20
    3a5a:	05 06       	cpc	r0, r21
    3a5c:	08 95       	ret

00003a5e <__fp_round>:
    3a5e:	09 2e       	mov	r0, r25
    3a60:	03 94       	inc	r0
    3a62:	00 0c       	add	r0, r0
    3a64:	11 f4       	brne	.+4      	; 0x3a6a <.L1^B1>
    3a66:	88 23       	and	r24, r24
    3a68:	52 f0       	brmi	.+20     	; 0x3a7e <.L3^B1>

00003a6a <.L1^B1>:
    3a6a:	bb 0f       	add	r27, r27
    3a6c:	40 f4       	brcc	.+16     	; 0x3a7e <.L3^B1>
    3a6e:	bf 2b       	or	r27, r31
    3a70:	11 f4       	brne	.+4      	; 0x3a76 <.L2^B1>
    3a72:	60 ff       	sbrs	r22, 0
    3a74:	04 c0       	rjmp	.+8      	; 0x3a7e <.L3^B1>

00003a76 <.L2^B1>:
    3a76:	6f 5f       	subi	r22, 0xFF	; 255
    3a78:	7f 4f       	sbci	r23, 0xFF	; 255
    3a7a:	8f 4f       	sbci	r24, 0xFF	; 255
    3a7c:	9f 4f       	sbci	r25, 0xFF	; 255

00003a7e <.L3^B1>:
    3a7e:	08 95       	ret

00003a80 <__fp_split3>:
    3a80:	57 fd       	sbrc	r21, 7
    3a82:	90 58       	subi	r25, 0x80	; 128
    3a84:	44 0f       	add	r20, r20
    3a86:	55 1f       	adc	r21, r21
    3a88:	59 f0       	breq	.+22     	; 0x3aa0 <.L4^B1>
    3a8a:	5f 3f       	cpi	r21, 0xFF	; 255
    3a8c:	71 f0       	breq	.+28     	; 0x3aaa <.L5^B1>

00003a8e <.L1^B1>:
    3a8e:	47 95       	ror	r20

00003a90 <__fp_splitA>:
    3a90:	88 0f       	add	r24, r24
    3a92:	97 fb       	bst	r25, 7
    3a94:	99 1f       	adc	r25, r25
    3a96:	61 f0       	breq	.+24     	; 0x3ab0 <.L6^B1>
    3a98:	9f 3f       	cpi	r25, 0xFF	; 255
    3a9a:	79 f0       	breq	.+30     	; 0x3aba <.L7^B1>

00003a9c <.L3^B1>:
    3a9c:	87 95       	ror	r24
    3a9e:	08 95       	ret

00003aa0 <.L4^B1>:
    3aa0:	12 16       	cp	r1, r18
    3aa2:	13 06       	cpc	r1, r19
    3aa4:	14 06       	cpc	r1, r20
    3aa6:	55 1f       	adc	r21, r21
    3aa8:	f2 cf       	rjmp	.-28     	; 0x3a8e <.L1^B1>

00003aaa <.L5^B1>:
    3aaa:	46 95       	lsr	r20
    3aac:	f1 df       	rcall	.-30     	; 0x3a90 <__fp_splitA>
    3aae:	08 c0       	rjmp	.+16     	; 0x3ac0 <.L8^B1>

00003ab0 <.L6^B1>:
    3ab0:	16 16       	cp	r1, r22
    3ab2:	17 06       	cpc	r1, r23
    3ab4:	18 06       	cpc	r1, r24
    3ab6:	99 1f       	adc	r25, r25
    3ab8:	f1 cf       	rjmp	.-30     	; 0x3a9c <.L3^B1>

00003aba <.L7^B1>:
    3aba:	86 95       	lsr	r24
    3abc:	71 05       	cpc	r23, r1
    3abe:	61 05       	cpc	r22, r1

00003ac0 <.L8^B1>:
    3ac0:	08 94       	sec
    3ac2:	08 95       	ret

00003ac4 <__fp_zero>:
    3ac4:	e8 94       	clt

00003ac6 <__fp_szero>:
    3ac6:	bb 27       	eor	r27, r27
    3ac8:	66 27       	eor	r22, r22
    3aca:	77 27       	eor	r23, r23
    3acc:	cb 01       	movw	r24, r22
    3ace:	97 f9       	bld	r25, 7
    3ad0:	08 95       	ret

00003ad2 <__gesf2>:
    3ad2:	0e 94 f4 1c 	call	0x39e8	; 0x39e8 <__fp_cmp>
    3ad6:	08 f4       	brcc	.+2      	; 0x3ada <.L1^B1>
    3ad8:	8f ef       	ldi	r24, 0xFF	; 255

00003ada <.L1^B1>:
    3ada:	08 95       	ret

00003adc <__mulsf3>:
    3adc:	0e 94 81 1d 	call	0x3b02	; 0x3b02 <__mulsf3x>
    3ae0:	0c 94 2f 1d 	jmp	0x3a5e	; 0x3a5e <__fp_round>

00003ae4 <.L^B1>:
    3ae4:	0e 94 21 1d 	call	0x3a42	; 0x3a42 <__fp_pscA>
    3ae8:	38 f0       	brcs	.+14     	; 0x3af8 <.L1^B1>
    3aea:	0e 94 28 1d 	call	0x3a50	; 0x3a50 <__fp_pscB>
    3aee:	20 f0       	brcs	.+8      	; 0x3af8 <.L1^B1>
    3af0:	95 23       	and	r25, r21
    3af2:	11 f0       	breq	.+4      	; 0x3af8 <.L1^B1>
    3af4:	0c 94 18 1d 	jmp	0x3a30	; 0x3a30 <__fp_inf>

00003af8 <.L1^B1>:
    3af8:	0c 94 1e 1d 	jmp	0x3a3c	; 0x3a3c <__fp_nan>

00003afc <.L2^B1>:
    3afc:	11 24       	eor	r1, r1
    3afe:	0c 94 63 1d 	jmp	0x3ac6	; 0x3ac6 <__fp_szero>

00003b02 <__mulsf3x>:
    3b02:	0e 94 40 1d 	call	0x3a80	; 0x3a80 <__fp_split3>
    3b06:	70 f3       	brcs	.-36     	; 0x3ae4 <.L^B1>

00003b08 <__mulsf3_pse>:
    3b08:	95 9f       	mul	r25, r21
    3b0a:	c1 f3       	breq	.-16     	; 0x3afc <.L2^B1>
    3b0c:	95 0f       	add	r25, r21
    3b0e:	50 e0       	ldi	r21, 0x00	; 0
    3b10:	55 1f       	adc	r21, r21
    3b12:	62 9f       	mul	r22, r18
    3b14:	f0 01       	movw	r30, r0
    3b16:	72 9f       	mul	r23, r18
    3b18:	bb 27       	eor	r27, r27
    3b1a:	f0 0d       	add	r31, r0
    3b1c:	b1 1d       	adc	r27, r1
    3b1e:	63 9f       	mul	r22, r19
    3b20:	aa 27       	eor	r26, r26
    3b22:	f0 0d       	add	r31, r0
    3b24:	b1 1d       	adc	r27, r1
    3b26:	aa 1f       	adc	r26, r26
    3b28:	64 9f       	mul	r22, r20
    3b2a:	66 27       	eor	r22, r22
    3b2c:	b0 0d       	add	r27, r0
    3b2e:	a1 1d       	adc	r26, r1
    3b30:	66 1f       	adc	r22, r22
    3b32:	82 9f       	mul	r24, r18
    3b34:	22 27       	eor	r18, r18
    3b36:	b0 0d       	add	r27, r0
    3b38:	a1 1d       	adc	r26, r1
    3b3a:	62 1f       	adc	r22, r18
    3b3c:	73 9f       	mul	r23, r19
    3b3e:	b0 0d       	add	r27, r0
    3b40:	a1 1d       	adc	r26, r1
    3b42:	62 1f       	adc	r22, r18
    3b44:	83 9f       	mul	r24, r19
    3b46:	a0 0d       	add	r26, r0
    3b48:	61 1d       	adc	r22, r1
    3b4a:	22 1f       	adc	r18, r18
    3b4c:	74 9f       	mul	r23, r20
    3b4e:	33 27       	eor	r19, r19
    3b50:	a0 0d       	add	r26, r0
    3b52:	61 1d       	adc	r22, r1
    3b54:	23 1f       	adc	r18, r19
    3b56:	84 9f       	mul	r24, r20
    3b58:	60 0d       	add	r22, r0
    3b5a:	21 1d       	adc	r18, r1
    3b5c:	82 2f       	mov	r24, r18
    3b5e:	76 2f       	mov	r23, r22
    3b60:	6a 2f       	mov	r22, r26
    3b62:	11 24       	eor	r1, r1
    3b64:	9f 57       	subi	r25, 0x7F	; 127
    3b66:	50 40       	sbci	r21, 0x00	; 0
    3b68:	9a f0       	brmi	.+38     	; 0x3b90 <.L13^B1>
    3b6a:	f1 f0       	breq	.+60     	; 0x3ba8 <.L15^B1>

00003b6c <.L10^B1>:
    3b6c:	88 23       	and	r24, r24
    3b6e:	4a f0       	brmi	.+18     	; 0x3b82 <.L11^B1>
    3b70:	ee 0f       	add	r30, r30
    3b72:	ff 1f       	adc	r31, r31
    3b74:	bb 1f       	adc	r27, r27
    3b76:	66 1f       	adc	r22, r22
    3b78:	77 1f       	adc	r23, r23
    3b7a:	88 1f       	adc	r24, r24
    3b7c:	91 50       	subi	r25, 0x01	; 1
    3b7e:	50 40       	sbci	r21, 0x00	; 0
    3b80:	a9 f7       	brne	.-22     	; 0x3b6c <.L10^B1>

00003b82 <.L11^B1>:
    3b82:	9e 3f       	cpi	r25, 0xFE	; 254
    3b84:	51 05       	cpc	r21, r1
    3b86:	80 f0       	brcs	.+32     	; 0x3ba8 <.L15^B1>
    3b88:	0c 94 18 1d 	jmp	0x3a30	; 0x3a30 <__fp_inf>

00003b8c <.L12^B1>:
    3b8c:	0c 94 63 1d 	jmp	0x3ac6	; 0x3ac6 <__fp_szero>

00003b90 <.L13^B1>:
    3b90:	5f 3f       	cpi	r21, 0xFF	; 255
    3b92:	e4 f3       	brlt	.-8      	; 0x3b8c <.L12^B1>
    3b94:	98 3e       	cpi	r25, 0xE8	; 232
    3b96:	d4 f3       	brlt	.-12     	; 0x3b8c <.L12^B1>

00003b98 <.L14^B1>:
    3b98:	86 95       	lsr	r24
    3b9a:	77 95       	ror	r23
    3b9c:	67 95       	ror	r22
    3b9e:	b7 95       	ror	r27
    3ba0:	f7 95       	ror	r31
    3ba2:	e7 95       	ror	r30
    3ba4:	9f 5f       	subi	r25, 0xFF	; 255
    3ba6:	c1 f7       	brne	.-16     	; 0x3b98 <.L14^B1>

00003ba8 <.L15^B1>:
    3ba8:	fe 2b       	or	r31, r30
    3baa:	88 0f       	add	r24, r24
    3bac:	91 1d       	adc	r25, r1
    3bae:	96 95       	lsr	r25
    3bb0:	87 95       	ror	r24
    3bb2:	97 f9       	bld	r25, 7
    3bb4:	08 95       	ret

00003bb6 <_exit>:
    3bb6:	f8 94       	cli

00003bb8 <__stop_program>:
    3bb8:	ff cf       	rjmp	.-2      	; 0x3bb8 <__stop_program>
